Certificate:
    Data:
        Version: 3 (0x2)
        Serial Number:
            25:eb:da:9e:1b:fc:c2:e8:6d:10:05:59:4d:8e:35:f1:5c:1a:73:3b
        Signature Algorithm: sha256WithRSAEncryption
        Issuer: C=BR, ST=SC, O=Bruno, OU=Matriz, CN=ca.bruno.com/emailAddress=ca@bruno.com
        Validity
            Not Before: Sep 14 23:12:37 2025 GMT
            Not After : Sep 14 23:12:37 2026 GMT
        Subject: C=BR, ST=SC, L=Florianopolis, O=Bruno, OU=Matriz, CN=intca.bruno.com/emailAddress=intca@bruno.com
        Subject Public Key Info:
            Public Key Algorithm: rsaEncryption
                Public-Key: (4096 bit)
                Modulus:
                    00:d4:7c:99:82:96:42:fe:8c:11:2d:69:82:c3:b9:
                    29:85:c9:20:74:9e:c5:ac:66:ba:c3:f6:65:29:8e:
                    08:ec:78:2e:85:4b:99:34:e3:c0:86:ad:72:ba:8b:
                    39:fc:28:ba:04:85:d4:ee:00:50:dd:fb:41:14:bc:
                    61:a3:af:d9:54:2f:a2:50:33:4a:83:59:4b:f4:b9:
                    32:c2:c3:b1:e5:e3:e3:a5:c0:b8:84:2b:aa:cf:5a:
                    a7:ca:9a:e1:f0:61:3c:f0:55:24:ea:60:88:b6:a9:
                    f8:35:34:3c:6d:16:0d:13:de:a5:73:cc:da:4b:2f:
                    b9:6b:d8:db:b4:8c:c2:76:a1:2c:d6:72:46:5e:d4:
                    23:5a:e3:4c:99:f7:6a:7f:5c:60:02:8c:ec:a5:1a:
                    92:55:8b:b3:e5:72:af:81:5a:b7:ec:05:57:72:f3:
                    be:64:9e:0c:60:1d:f3:b3:c5:18:e4:2f:b8:4b:11:
                    ca:5e:2f:b8:73:4d:20:1d:b2:dc:46:2d:7c:0e:1b:
                    13:e2:e0:b0:3a:cb:9e:90:95:e1:d3:57:8f:ad:5b:
                    2a:97:08:d5:d6:a4:88:68:27:9d:71:38:6c:cb:95:
                    91:13:06:83:cb:54:2a:ac:c8:10:9c:23:3f:d2:cc:
                    f9:4d:5f:79:99:77:68:cb:2d:41:98:6a:2d:f0:65:
                    9a:ad:ac:29:98:23:be:e7:9b:a8:82:78:85:cc:01:
                    a2:3e:5c:fa:25:54:4b:44:b1:b9:dc:66:82:3b:86:
                    fe:19:97:40:33:f0:11:f1:9e:65:50:81:74:84:90:
                    a4:de:5b:ef:3e:33:8f:c1:10:72:53:2a:68:44:c4:
                    3d:01:07:5a:00:99:20:2c:30:98:40:94:e4:1c:b0:
                    00:5d:16:83:15:9a:5c:5c:27:f0:d9:6b:37:c6:9b:
                    3d:86:6c:7b:93:d3:b0:63:0a:7b:d2:b4:43:a7:53:
                    52:11:eb:ef:50:4a:91:0b:33:11:69:15:1f:5a:df:
                    f1:9d:a1:aa:6a:79:cf:6b:9e:20:bc:47:80:0b:8c:
                    02:ec:b8:4d:8c:90:30:6e:bc:01:09:ea:b3:22:c6:
                    58:be:0e:99:b5:c5:6a:e2:a5:b9:56:09:f4:19:2d:
                    66:8d:90:65:52:4a:fe:aa:f8:ba:09:de:d5:08:61:
                    55:b9:6a:a8:a7:21:4f:e4:77:b1:cd:15:d0:d8:4a:
                    fe:97:d7:a9:2a:67:02:33:76:d0:dd:fe:9d:48:51:
                    34:29:53:ba:41:7b:35:01:f7:62:3d:5f:50:b9:16:
                    0e:95:fc:43:b3:30:0c:71:1f:90:7a:a1:46:1e:23:
                    e4:0c:32:91:3d:f6:8f:a5:97:dc:7f:2d:96:15:a2:
                    65:7a:5b
                Exponent: 65537 (0x10001)
        X509v3 extensions:
            X509v3 Subject Key Identifier: 
                B4:75:E6:94:B4:82:37:DF:6B:3F:93:0E:66:CE:63:DE:54:C3:96:34
            X509v3 Authority Key Identifier: 
                6B:01:42:13:BA:B2:03:90:19:10:24:2D:04:6B:41:8E:3F:8D:50:32
            X509v3 Basic Constraints: critical
                CA:TRUE
    Signature Algorithm: sha256WithRSAEncryption
    Signature Value:
        1e:d7:9b:86:3c:7c:a2:4d:28:c2:af:2b:db:74:6d:2e:20:d6:
        93:ec:f9:fc:9b:3e:32:6a:e9:ae:39:b4:55:ff:81:e5:a9:53:
        3b:30:db:1e:71:49:f9:2b:b3:e4:33:18:11:d7:8f:7b:45:f7:
        ad:15:f3:9a:78:98:73:f0:d4:2b:61:ed:44:b8:87:0d:11:23:
        4b:7c:f8:71:ec:93:ca:43:3f:e7:6f:01:b7:56:02:7a:ed:52:
        a4:68:14:e7:bf:46:f9:53:c2:45:c8:40:64:6c:c9:9d:9b:05:
        4f:71:65:64:fb:89:53:8b:02:75:cf:b9:a6:1e:75:f1:d5:b8:
        ad:4e:cb:ff:96:45:7c:72:ae:fb:ff:66:47:1b:2a:5b:88:f7:
        5e:e7:0e:84:eb:34:78:b8:a2:be:3f:41:fd:c0:b3:da:55:17:
        c4:a1:c5:67:8a:c6:60:5c:7a:cf:4f:17:d8:bf:b6:fc:55:94:
        62:b6:b5:ed:95:70:43:21:32:5a:87:d8:2a:17:b5:d6:d6:ab:
        14:ff:8c:50:db:66:c4:07:c7:bb:c5:a5:43:01:0e:f2:99:6f:
        3d:eb:b2:22:cc:46:04:4c:6f:a7:e1:d5:bc:bb:30:fa:6e:9e:
        24:8f:28:25:be:6c:af:2e:00:a8:8f:6c:62:e2:a1:c6:66:c6:
        47:ec:7d:bc:12:6e:eb:ef:fe:b6:f7:cc:44:19:49:43:a4:62:
        21:04:d8:55:50:47:3e:1d:01:5c:ab:3e:77:56:32:15:e1:74:
        d3:9e:f1:ee:e7:c6:1e:48:52:8d:80:35:5b:85:8d:fc:69:4a:
        7b:5a:75:b2:fc:af:6b:5b:4a:48:71:74:c9:c6:ed:4e:b3:5f:
        1d:6e:eb:7b:e4:e7:d7:f5:6e:3d:8d:d3:46:f9:d1:0f:c0:b5:
        9a:f6:c4:60:dc:84:ed:9a:e7:9e:ee:f9:ec:65:28:0c:6f:e1:
        32:94:49:7f:a3:39:6a:af:1d:fe:75:64:49:71:bc:ea:9c:6c:
        03:a1:ec:41:93:19:52:6c:ef:f1:dc:de:21:c3:aa:b7:99:bb:
        a8:fd:4c:7a:e9:76:80:04:91:16:13:b9:06:60:7d:42:44:95:
        4e:a0:a2:ad:06:92:a2:5f:34:50:a5:6b:db:bd:09:cb:9a:99:
        aa:88:88:dd:f0:2c:40:9e:c9:37:e1:d6:fb:22:31:1c:95:89:
        2d:d9:b1:bf:93:53:0f:f2:ed:c9:86:f3:25:0b:c1:9b:41:c4:
        3e:45:66:e4:e0:8e:27:08:d9:ea:35:4f:2c:cb:27:77:5d:5d:
        cf:40:bb:9f:17:f8:11:24:da:0b:fa:9b:ed:6b:5c:b8:16:1a:
        ec:9a:1d:48:a9:c6:8b:0d
-----BEGIN CERTIFICATE-----
MIIF3jCCA8agAwIBAgIUJevanhv8wuhtEAVZTY418VwaczswDQYJKoZIhvcNAQEL
BQAwbzELMAkGA1UEBhMCQlIxCzAJBgNVBAgMAlNDMQ4wDAYDVQQKDAVCcnVubzEP
MA0GA1UECwwGTWF0cml6MRUwEwYDVQQDDAxjYS5icnVuby5jb20xGzAZBgkqhkiG
9w0BCQEWDGNhQGJydW5vLmNvbTAeFw0yNTA5MTQyMzEyMzdaFw0yNjA5MTQyMzEy
MzdaMIGNMQswCQYDVQQGEwJCUjELMAkGA1UECAwCU0MxFjAUBgNVBAcMDUZsb3Jp
YW5vcG9saXMxDjAMBgNVBAoMBUJydW5vMQ8wDQYDVQQLDAZNYXRyaXoxGDAWBgNV
BAMMD2ludGNhLmJydW5vLmNvbTEeMBwGCSqGSIb3DQEJARYPaW50Y2FAYnJ1bm8u
Y29tMIICIjANBgkqhkiG9w0BAQEFAAOCAg8AMIICCgKCAgEA1HyZgpZC/owRLWmC
w7kphckgdJ7FrGa6w/ZlKY4I7HguhUuZNOPAhq1yuos5/Ci6BIXU7gBQ3ftBFLxh
o6/ZVC+iUDNKg1lL9LkywsOx5ePjpcC4hCuqz1qnyprh8GE88FUk6mCItqn4NTQ8
bRYNE96lc8zaSy+5a9jbtIzCdqEs1nJGXtQjWuNMmfdqf1xgAozspRqSVYuz5XKv
gVq37AVXcvO+ZJ4MYB3zs8UY5C+4SxHKXi+4c00gHbLcRi18DhsT4uCwOsuekJXh
01ePrVsqlwjV1qSIaCedcThsy5WREwaDy1QqrMgQnCM/0sz5TV95mXdoyy1BmGot
8GWarawpmCO+55uogniFzAGiPlz6JVRLRLG53GaCO4b+GZdAM/AR8Z5lUIF0hJCk
3lvvPjOPwRByUypoRMQ9AQdaAJkgLDCYQJTkHLAAXRaDFZpcXCfw2Ws3xps9hmx7
k9OwYwp70rRDp1NSEevvUEqRCzMRaRUfWt/xnaGqannPa54gvEeAC4wC7LhNjJAw
brwBCeqzIsZYvg6ZtcVq4qW5Vgn0GS1mjZBlUkr+qvi6Cd7VCGFVuWqopyFP5Hex
zRXQ2Er+l9epKmcCM3bQ3f6dSFE0KVO6QXs1AfdiPV9QuRYOlfxDszAMcR+QeqFG
HiPkDDKRPfaPpZfcfy2WFaJlelsCAwEAAaNTMFEwHQYDVR0OBBYEFLR15pS0gjff
az+TDmbOY95Uw5Y0MB8GA1UdIwQYMBaAFGsBQhO6sgOQGRAkLQRrQY4/jVAyMA8G
A1UdEwEB/wQFMAMBAf8wDQYJKoZIhvcNAQELBQADggIBAB7Xm4Y8fKJNKMKvK9t0
bS4g1pPs+fybPjJq6a45tFX/geWpUzsw2x5xSfkrs+QzGBHXj3tF960V85p4mHPw
1Cth7US4hw0RI0t8+HHsk8pDP+dvAbdWAnrtUqRoFOe/RvlTwkXIQGRsyZ2bBU9x
ZWT7iVOLAnXPuaYedfHVuK1Oy/+WRXxyrvv/ZkcbKluI917nDoTrNHi4or4/Qf3A
s9pVF8ShxWeKxmBces9PF9i/tvxVlGK2te2VcEMhMlqH2CoXtdbWqxT/jFDbZsQH
x7vFpUMBDvKZbz3rsiLMRgRMb6fh1by7MPpuniSPKCW+bK8uAKiPbGLiocZmxkfs
fbwSbuvv/rb3zEQZSUOkYiEE2FVQRz4dAVyrPndWMhXhdNOe8e7nxh5IUo2ANVuF
jfxpSntadbL8r2tbSkhxdMnG7U6zXx1u63vk59f1bj2N00b50Q/AtZr2xGDchO2a
557u+exlKAxv4TKUSX+jOWqvHf51ZElxvOqcbAOh7EGTGVJs7/Hc3iHDqreZu6j9
THrpdoAEkRYTuQZgfUJElU6goq0GkqJfNFCla9u9CcuamaqIiN3wLECeyTfh1vsi
MRyViS3Zsb+TUw/y7cmG8yULwZtBxD5FZuTgjicI2eo1TyzLJ3ddXc9Au58X+BEk
2gv6m+1rXLgWGuyaHUipxosN
-----END CERTIFICATE-----
Certificate:
    Data:
        Version: 3 (0x2)
        Serial Number:
            25:eb:da:9e:1b:fc:c2:e8:6d:10:05:59:4d:8e:35:f1:5c:1a:73:3a
        Signature Algorithm: sha256WithRSAEncryption
        Issuer: C=BR, ST=SC, O=Bruno, OU=Matriz, CN=ca.bruno.com/emailAddress=ca@bruno.com
        Validity
            Not Before: Sep 14 23:12:35 2025 GMT
            Not After : Sep 13 23:12:35 2028 GMT
        Subject: C=BR, ST=SC, O=Bruno, OU=Matriz, CN=ca.bruno.com/emailAddress=ca@bruno.com
        Subject Public Key Info:
            Public Key Algorithm: rsaEncryption
                Public-Key: (4096 bit)
                Modulus:
                    00:99:3a:eb:37:17:c5:5a:1d:89:a0:34:60:82:25:
                    e1:2a:f0:6f:56:99:e3:d4:e7:01:48:ea:5e:7d:3f:
                    d2:a3:2a:3c:ee:0f:52:46:b1:a9:48:3a:7d:e3:a4:
                    24:db:5a:b4:17:03:02:0e:ce:8b:31:f6:6a:60:36:
                    0c:59:55:b1:98:4b:45:04:dd:db:0f:e6:53:e7:4d:
                    fe:c7:eb:00:83:d0:12:32:df:b0:f8:45:14:0f:6a:
                    86:cc:2f:b7:03:c5:ec:e8:3c:78:26:07:ab:23:0a:
                    06:36:60:7c:f5:36:a4:16:c5:fe:5a:8f:ca:d7:7c:
                    f9:93:74:89:21:c6:df:63:bb:0a:5e:06:3c:42:e6:
                    f4:49:11:dd:7b:d7:c2:e4:0f:2f:f7:96:0f:1c:f1:
                    13:7a:15:eb:5c:c2:59:94:38:b4:3f:07:21:9e:a2:
                    be:9c:fc:f7:2a:f8:42:62:74:4c:bd:d2:a9:3f:3b:
                    57:af:db:fa:b2:3c:d2:dd:8b:51:5f:14:80:cf:14:
                    9d:45:88:b9:c7:10:68:56:3b:93:8d:f5:11:92:95:
                    a8:63:76:cc:a1:58:05:f9:16:9b:11:2c:43:1f:bb:
                    54:fd:ce:c1:b7:bb:1d:fe:8f:c2:04:77:1a:6b:4c:
                    e2:4f:3e:38:5c:71:37:c9:3d:3a:3f:48:d0:10:8c:
                    3a:65:6c:7f:86:e7:e5:56:36:0d:84:75:36:63:30:
                    b7:c1:7a:5c:e4:c8:fe:47:4f:44:68:33:58:f3:e2:
                    5e:ca:91:4e:73:12:43:a7:62:5e:68:05:3c:53:e4:
                    51:3c:e3:bf:c2:8b:4e:bb:d0:a7:76:ad:f6:f9:84:
                    4b:21:34:a1:b6:a6:74:99:39:51:61:6c:f0:78:f1:
                    65:88:bc:bd:f7:58:4f:eb:40:af:63:02:e2:df:e7:
                    3b:d7:b2:da:46:96:93:1b:94:31:44:e5:e6:b0:dd:
                    21:b4:04:20:57:bc:c1:e1:17:81:f9:6a:1a:f8:3d:
                    1f:08:b0:0a:7e:21:6e:f5:b6:21:76:9c:68:3f:55:
                    64:b5:07:03:7b:a9:2d:b6:cc:da:65:a7:7e:a5:a8:
                    7d:9a:10:0d:5e:db:e6:b4:73:66:be:b1:ea:b8:60:
                    0c:47:1e:e7:0a:41:d2:0a:43:81:d8:de:72:f3:0d:
                    ac:a4:c9:fe:91:ed:50:44:d7:ff:1f:68:cf:fe:cf:
                    6c:0b:28:b9:0a:ce:a1:f2:1c:27:c3:28:64:00:72:
                    e4:5e:03:ca:f5:ff:df:47:a2:b7:d3:23:bf:ba:c1:
                    44:08:d7:ca:a1:67:5b:74:8a:28:6c:4e:00:6c:09:
                    5d:d7:67:ff:36:44:8a:95:72:89:f5:89:84:90:26:
                    66:d5:5f
                Exponent: 65537 (0x10001)
        X509v3 extensions:
            X509v3 Subject Key Identifier: 
                6B:01:42:13:BA:B2:03:90:19:10:24:2D:04:6B:41:8E:3F:8D:50:32
            X509v3 Authority Key Identifier: 
                6B:01:42:13:BA:B2:03:90:19:10:24:2D:04:6B:41:8E:3F:8D:50:32
            X509v3 Basic Constraints: critical
                CA:TRUE
    Signature Algorithm: sha256WithRSAEncryption
    Signature Value:
        32:73:84:2c:42:15:e9:23:3a:78:02:54:df:ba:c5:b1:40:1f:
        1d:6e:f5:f7:34:dd:b4:ae:5f:d5:9e:de:f9:37:b8:d2:7f:6c:
        70:6e:51:b0:d0:57:a6:5a:3e:64:0e:1b:fe:8e:ae:0e:34:59:
        97:a5:96:59:51:87:51:37:f0:b3:50:6b:bb:7e:63:ae:ad:6f:
        6b:71:6c:9a:8f:cc:4d:39:10:f9:1d:ef:b2:82:56:5a:ae:2f:
        ed:ec:72:b8:c3:27:de:f9:bb:46:a2:03:fc:03:84:b8:ab:fa:
        d5:f3:d8:6b:76:7b:fa:a5:db:77:38:4b:98:cc:17:37:ba:85:
        f3:39:27:1b:0f:e0:1a:5d:80:67:c3:e7:dd:d8:60:da:da:e2:
        c2:c4:cc:76:29:7e:d8:f0:9c:68:c5:be:6d:6d:11:80:8d:64:
        5f:14:87:98:b3:1d:23:e8:21:03:79:c9:0b:f7:80:de:41:9c:
        ea:23:53:da:5b:f4:14:70:e1:c7:f9:5b:f3:f1:f3:4e:3f:e7:
        40:71:35:a4:86:54:e6:10:dd:01:86:92:87:85:25:9d:0a:e7:
        fd:a7:8e:97:9e:21:d5:ef:54:2d:fd:f0:6a:65:0d:46:88:92:
        8f:81:65:ab:a7:f6:7a:12:dc:81:3f:db:19:16:1b:17:de:7b:
        f9:0c:42:aa:b9:24:fe:67:4f:d0:d2:7d:59:b5:c2:e8:cc:b8:
        13:3b:a3:fb:ee:7e:b1:e1:7c:c6:0f:2c:bc:aa:58:9e:17:93:
        db:67:72:0c:65:14:91:e2:94:99:02:b3:a3:df:23:e9:29:b0:
        31:b6:b9:eb:df:6e:8a:17:b8:c6:3c:a8:2b:38:92:f7:f3:c3:
        e1:92:12:56:5d:35:d1:47:be:dc:26:cd:05:c7:5c:8a:1f:a2:
        63:f7:67:24:d5:bb:3a:8c:b3:3e:59:78:f3:ac:4d:3c:e5:7b:
        c7:77:50:24:7e:22:11:f5:1e:3a:19:0b:64:00:8a:dc:26:e4:
        a2:8f:24:8a:72:5e:02:36:70:fa:cf:b2:79:9b:a5:97:0f:6e:
        9c:55:27:f5:b3:d6:32:58:53:55:ee:aa:3e:86:ef:71:8c:64:
        ac:a9:a8:a5:e8:07:fb:26:43:6b:5d:78:83:41:3a:22:5a:ba:
        48:09:20:05:0e:e8:77:87:3c:7e:dc:85:82:39:bd:76:5c:6e:
        88:45:a4:15:f6:ef:21:21:20:cb:ed:d5:ed:3b:11:d6:b4:44:
        a3:04:0e:82:1a:bb:b2:82:87:65:1e:b7:fb:e6:b3:f4:76:4f:
        e1:27:88:14:5e:ec:8e:c7:9c:cc:5e:8b:f8:70:86:21:da:d6:
        ed:9b:f1:75:36:d8:c5:36
-----BEGIN CERTIFICATE-----
MIIFvzCCA6egAwIBAgIUJevanhv8wuhtEAVZTY418VwaczowDQYJKoZIhvcNAQEL
BQAwbzELMAkGA1UEBhMCQlIxCzAJBgNVBAgMAlNDMQ4wDAYDVQQKDAVCcnVubzEP
MA0GA1UECwwGTWF0cml6MRUwEwYDVQQDDAxjYS5icnVuby5jb20xGzAZBgkqhkiG
9w0BCQEWDGNhQGJydW5vLmNvbTAeFw0yNTA5MTQyMzEyMzVaFw0yODA5MTMyMzEy
MzVaMG8xCzAJBgNVBAYTAkJSMQswCQYDVQQIDAJTQzEOMAwGA1UECgwFQnJ1bm8x
DzANBgNVBAsMBk1hdHJpejEVMBMGA1UEAwwMY2EuYnJ1bm8uY29tMRswGQYJKoZI
hvcNAQkBFgxjYUBicnVuby5jb20wggIiMA0GCSqGSIb3DQEBAQUAA4ICDwAwggIK
AoICAQCZOus3F8VaHYmgNGCCJeEq8G9WmePU5wFI6l59P9KjKjzuD1JGsalIOn3j
pCTbWrQXAwIOzosx9mpgNgxZVbGYS0UE3dsP5lPnTf7H6wCD0BIy37D4RRQPaobM
L7cDxezoPHgmB6sjCgY2YHz1NqQWxf5aj8rXfPmTdIkhxt9juwpeBjxC5vRJEd17
18LkDy/3lg8c8RN6FetcwlmUOLQ/ByGeor6c/Pcq+EJidEy90qk/O1ev2/qyPNLd
i1FfFIDPFJ1FiLnHEGhWO5ON9RGSlahjdsyhWAX5FpsRLEMfu1T9zsG3ux3+j8IE
dxprTOJPPjhccTfJPTo/SNAQjDplbH+G5+VWNg2EdTZjMLfBelzkyP5HT0RoM1jz
4l7KkU5zEkOnYl5oBTxT5FE847/Ci0670Kd2rfb5hEshNKG2pnSZOVFhbPB48WWI
vL33WE/rQK9jAuLf5zvXstpGlpMblDFE5eaw3SG0BCBXvMHhF4H5ahr4PR8IsAp+
IW71tiF2nGg/VWS1BwN7qS22zNplp36lqH2aEA1e2+a0c2a+seq4YAxHHucKQdIK
Q4HY3nLzDaykyf6R7VBE1/8faM/+z2wLKLkKzqHyHCfDKGQAcuReA8r1/99HorfT
I7+6wUQI18qhZ1t0iihsTgBsCV3XZ/82RIqVcon1iYSQJmbVXwIDAQABo1MwUTAd
BgNVHQ4EFgQUawFCE7qyA5AZECQtBGtBjj+NUDIwHwYDVR0jBBgwFoAUawFCE7qy
A5AZECQtBGtBjj+NUDIwDwYDVR0TAQH/BAUwAwEB/zANBgkqhkiG9w0BAQsFAAOC
AgEAMnOELEIV6SM6eAJU37rFsUAfHW719zTdtK5f1Z7e+Te40n9scG5RsNBXplo+
ZA4b/o6uDjRZl6WWWVGHUTfws1Bru35jrq1va3Fsmo/MTTkQ+R3vsoJWWq4v7exy
uMMn3vm7RqID/AOEuKv61fPYa3Z7+qXbdzhLmMwXN7qF8zknGw/gGl2AZ8Pn3dhg
2triwsTMdil+2PCcaMW+bW0RgI1kXxSHmLMdI+ghA3nJC/eA3kGc6iNT2lv0FHDh
x/lb8/HzTj/nQHE1pIZU5hDdAYaSh4UlnQrn/aeOl54h1e9ULf3wamUNRoiSj4Fl
q6f2ehLcgT/bGRYbF957+QxCqrkk/mdP0NJ9WbXC6My4Ezuj++5+seF8xg8svKpY
nheT22dyDGUUkeKUmQKzo98j6SmwMba5699uihe4xjyoKziS9/PD4ZISVl010Ue+
3CbNBcdcih+iY/dnJNW7OoyzPll486xNPOV7x3dQJH4iEfUeOhkLZACK3Cbkoo8k
inJeAjZw+s+yeZullw9unFUn9bPWMlhTVe6qPobvcYxkrKmopegH+yZDa114g0E6
Ilq6SAkgBQ7od4c8ftyFgjm9dlxuiEWkFfbvISEgy+3V7TsR1rREowQOghq7soKH
ZR63++az9HZP4SeIFF7sjseczF6L+HCGIdrW7ZvxdTbYxTY=
-----END CERTIFICATE-----
