Certificate:
    Data:
        Version: 3 (0x2)
        Serial Number:
            66:4f:c3:77:65:70:2a:18:75:e2:bb:21:a0:59:cd:6e:37:a4:b2:4e
        Signature Algorithm: sha256WithRSAEncryption
        Issuer: C=BR, ST=SC, O=Bruno, OU=Matriz, CN=ca.bruno.com/emailAddress=ca@bruno.com
        Validity
            Not Before: Sep  6 12:04:21 2023 GMT
            Not After : Sep  5 12:04:21 2026 GMT
        Subject: C=BR, ST=SC, O=Bruno, OU=Matriz, CN=ca.bruno.com/emailAddress=ca@bruno.com
        Subject Public Key Info:
            Public Key Algorithm: rsaEncryption
                RSA Public-Key: (4096 bit)
                Modulus:
                    00:c0:74:12:fc:fb:88:8e:4e:eb:ac:cc:99:24:92:
                    72:d8:f0:88:15:89:44:fc:cf:6b:51:18:42:bb:67:
                    c1:3f:fb:88:be:be:f6:46:21:00:3c:fe:71:8b:f5:
                    71:52:7a:09:de:a7:b2:a2:9f:8e:81:30:b8:23:ae:
                    4a:5f:01:4e:81:79:df:02:d3:c6:cf:68:8b:f8:2b:
                    28:fc:9c:83:2d:bc:43:86:78:d2:03:42:28:e7:93:
                    ba:2c:57:ea:6a:40:47:d1:c8:e7:dc:28:c6:df:63:
                    be:41:4a:b9:de:0e:f8:9a:6b:22:cc:d0:95:d6:02:
                    e3:82:0f:63:8e:81:47:6f:e8:d1:39:52:52:fa:b8:
                    f7:f8:a2:90:41:52:f6:e4:64:e1:07:d3:9b:8f:cc:
                    42:7a:66:bb:52:f8:60:b4:d3:b2:55:42:9c:5a:56:
                    e8:05:61:68:19:ad:60:ae:af:e5:9e:61:d6:80:65:
                    f0:52:71:a1:93:69:eb:86:df:28:84:8b:57:a0:b8:
                    95:bb:ff:42:91:e5:c3:dd:6e:04:75:50:5e:90:20:
                    39:c8:6f:e7:ce:77:85:b7:0e:26:76:fa:6b:3d:06:
                    6b:66:25:5c:8c:8f:4b:23:ac:29:95:eb:f0:33:b1:
                    7e:f6:c2:75:d7:a5:12:41:c6:cd:46:2c:89:27:f2:
                    09:10:94:bc:4a:54:73:e4:97:d1:a7:7d:41:43:54:
                    f6:7e:2e:15:16:7d:d5:20:35:af:4f:47:36:0c:83:
                    99:f1:89:f8:fb:78:fa:ff:92:9f:23:c3:0d:2c:8a:
                    48:ba:bd:47:84:53:d2:b0:c5:63:27:20:0f:ee:bf:
                    24:03:75:cd:2f:ac:a0:1e:1a:bb:56:3e:8b:0b:5c:
                    d0:69:92:47:91:21:a8:aa:a5:7e:4f:91:0e:cd:85:
                    a4:7f:35:10:a5:30:49:20:3f:0f:95:fc:90:e1:c1:
                    4f:2a:ae:20:69:c5:3f:75:8b:55:d3:a0:21:4b:78:
                    4f:81:77:3c:35:43:5f:01:03:2b:d3:e9:9f:26:94:
                    fc:42:2a:9f:b9:2f:b7:11:02:eb:30:ac:9b:5e:f0:
                    cb:6b:b1:63:fc:73:59:4f:a8:ec:09:75:0f:7e:9b:
                    fd:28:ee:3a:e4:36:af:a4:aa:5a:45:d0:19:b0:cb:
                    e4:ad:68:4f:5e:03:38:b0:a9:6a:af:f6:eb:3b:3e:
                    f5:73:d9:03:e1:11:4f:07:09:73:bf:a1:ea:fc:73:
                    33:53:86:09:41:7b:e7:0e:fa:0d:57:9d:21:a1:af:
                    33:80:e8:43:56:ce:52:61:2a:cc:ba:57:be:8a:94:
                    75:05:1a:73:e4:cb:37:3c:bb:91:8d:66:01:3c:73:
                    ba:f5:e3
                Exponent: 65537 (0x10001)
        X509v3 extensions:
            X509v3 Subject Key Identifier: 
                1D:40:C3:EA:12:D1:4D:9D:C5:A3:0D:87:CC:F9:71:B0:43:B4:0A:EE
            X509v3 Authority Key Identifier: 
                keyid:1D:40:C3:EA:12:D1:4D:9D:C5:A3:0D:87:CC:F9:71:B0:43:B4:0A:EE

            X509v3 Basic Constraints: critical
                CA:TRUE
    Signature Algorithm: sha256WithRSAEncryption
         b1:88:df:83:4c:15:02:13:ba:ca:4f:58:c4:93:c9:fb:a2:f4:
         56:3a:e8:00:84:28:eb:81:ef:da:bc:64:3e:ab:e7:69:28:ef:
         0c:1e:13:81:b6:c7:c4:43:02:ea:32:55:57:54:b6:bd:b9:00:
         ce:87:aa:9a:bd:8f:45:43:7a:ec:97:3f:ef:d7:f4:40:3f:ec:
         28:82:71:9c:5c:91:e1:82:1f:54:2b:fa:6d:0c:f3:95:45:23:
         26:5f:9d:23:38:6c:6c:0f:98:26:8c:87:ca:df:9d:6a:88:b9:
         c2:0a:b4:f8:7d:c5:94:ed:b3:84:87:07:20:a8:09:31:77:dd:
         06:29:93:70:3c:05:07:43:17:ff:d9:78:0f:e6:25:95:85:45:
         e3:19:67:26:70:e2:a4:bf:52:77:90:db:70:05:c8:aa:de:67:
         aa:9b:a0:3a:95:a6:c2:bc:88:38:0d:fd:b3:52:cf:b1:f9:17:
         f3:f3:ac:79:5e:c4:a4:0d:91:24:79:82:ff:85:8d:01:f2:b3:
         77:b1:6a:0e:61:b4:cd:57:a2:48:4d:c7:43:08:9a:9c:10:a9:
         59:1a:ae:84:b2:da:5d:bd:84:ce:c5:85:a8:90:7b:5c:60:49:
         7a:4e:52:86:dd:57:ad:77:6d:72:8f:70:90:44:af:9e:21:8e:
         19:f5:46:64:a8:72:2d:d1:db:b5:32:20:e4:56:63:13:67:9d:
         ff:e7:19:eb:79:1d:41:2a:13:5d:38:03:ce:fa:e6:08:ab:6a:
         f1:5e:7a:3b:16:64:a5:3f:8a:9f:a4:94:20:80:23:e2:b5:64:
         b5:ba:53:b9:88:08:0c:42:e3:97:be:91:4a:6d:56:7c:41:db:
         89:f2:c3:b2:d3:98:c1:fb:bf:05:84:78:18:bf:20:b2:83:0c:
         df:27:dd:0c:3c:0d:da:85:ff:f6:50:2d:ca:99:61:b2:4b:9a:
         6d:6a:70:46:2a:e8:7f:94:3e:40:bd:f3:e7:df:38:e2:e3:b6:
         e5:64:d9:a2:c9:a0:78:24:59:b0:5f:0b:2f:ca:4f:7f:f3:7c:
         b9:e9:b1:68:91:02:b0:5a:87:63:cd:b5:6c:40:d9:fa:c8:50:
         ce:23:be:df:44:61:fd:bb:4b:32:e0:68:d4:2f:ca:79:94:3d:
         9f:a3:2a:e1:f9:74:76:d7:4e:93:3f:b2:a3:3b:61:ae:0c:b3:
         cd:6a:77:a2:7c:1f:ab:2d:46:d1:0f:20:70:41:6a:e6:9c:95:
         48:b9:69:ac:f6:74:a5:c9:cb:7f:e5:e0:53:3e:74:4a:2b:59:
         bb:6c:d4:50:c9:d8:23:7b:6e:04:66:4e:0a:09:a3:44:f1:00:
         19:42:52:66:88:cb:2c:ec
-----BEGIN CERTIFICATE-----
MIIFyzCCA7OgAwIBAgIUZk/Dd2VwKhh14rshoFnNbjeksk4wDQYJKoZIhvcNAQEL
BQAwdTELMAkGA1UEBhMCQlIxCzAJBgNVBAgMAlNDMRAwDgYDVQQKDAdEaWdpdHJv
MQ8wDQYDVQQLDAZNYXRyaXoxFzAVBgNVBAMMDmNhLmRpZ2l0cm8uY29tMR0wGwYJ
KoZIhvcNAQkBFg5jYUBkaWdpdHJvLmNvbTAeFw0yMzA5MDYxMjA0MjFaFw0yNjA5
MDUxMjA0MjFaMHUxCzAJBgNVBAYTAkJSMQswCQYDVQQIDAJTQzEQMA4GA1UECgwH
RGlnaXRybzEPMA0GA1UECwwGTWF0cml6MRcwFQYDVQQDDA5jYS5kaWdpdHJvLmNv
bTEdMBsGCSqGSIb3DQEJARYOY2FAZGlnaXRyby5jb20wggIiMA0GCSqGSIb3DQEB
AQUAA4ICDwAwggIKAoICAQDAdBL8+4iOTuuszJkkknLY8IgViUT8z2tRGEK7Z8E/
+4i+vvZGIQA8/nGL9XFSegnep7Kin46BMLgjrkpfAU6Bed8C08bPaIv4Kyj8nIMt
vEOGeNIDQijnk7osV+pqQEfRyOfcKMbfY75BSrneDviaayLM0JXWAuOCD2OOgUdv
6NE5UlL6uPf4opBBUvbkZOEH05uPzEJ6ZrtS+GC007JVQpxaVugFYWgZrWCur+We
YdaAZfBScaGTaeuG3yiEi1eguJW7/0KR5cPdbgR1UF6QIDnIb+fOd4W3DiZ2+ms9
BmtmJVyMj0sjrCmV6/AzsX72wnXXpRJBxs1GLIkn8gkQlLxKVHPkl9GnfUFDVPZ+
LhUWfdUgNa9PRzYMg5nxifj7ePr/kp8jww0siki6vUeEU9KwxWMnIA/uvyQDdc0v
rKAeGrtWPosLXNBpkkeRIaiqpX5PkQ7NhaR/NRClMEkgPw+V/JDhwU8qriBpxT91
i1XToCFLeE+Bdzw1Q18BAyvT6Z8mlPxCKp+5L7cRAuswrJte8MtrsWP8c1lPqOwJ
dQ9+m/0o7jrkNq+kqlpF0Bmwy+StaE9eAziwqWqv9us7PvVz2QPhEU8HCXO/oer8
czNThglBe+cO+g1XnSGhrzOA6ENWzlJhKsy6V76KlHUFGnPkyzc8u5GNZgE8c7r1
4wIDAQABo1MwUTAdBgNVHQ4EFgQUHUDD6hLRTZ3Fow2HzPlxsEO0Cu4wHwYDVR0j
BBgwFoAUHUDD6hLRTZ3Fow2HzPlxsEO0Cu4wDwYDVR0TAQH/BAUwAwEB/zANBgkq
hkiG9w0BAQsFAAOCAgEAsYjfg0wVAhO6yk9YxJPJ+6L0VjroAIQo64Hv2rxkPqvn
aSjvDB4TgbbHxEMC6jJVV1S2vbkAzoeqmr2PRUN67Jc/79f0QD/sKIJxnFyR4YIf
VCv6bQzzlUUjJl+dIzhsbA+YJoyHyt+daoi5wgq0+H3FlO2zhIcHIKgJMXfdBimT
cDwFB0MX/9l4D+YllYVF4xlnJnDipL9Sd5DbcAXIqt5nqpugOpWmwryIOA39s1LP
sfkX8/OseV7EpA2RJHmC/4WNAfKzd7FqDmG0zVeiSE3HQwianBCpWRquhLLaXb2E
zsWFqJB7XGBJek5Sht1XrXdtco9wkESvniGOGfVGZKhyLdHbtTIg5FZjE2ed/+cZ
63kdQSoTXTgDzvrmCKtq8V56OxZkpT+Kn6SUIIAj4rVktbpTuYgIDELjl76RSm1W
fEHbifLDstOYwfu/BYR4GL8gsoMM3yfdDDwN2oX/9lAtyplhskuabWpwRirof5Q+
QL3z59844uO25WTZosmgeCRZsF8LL8pPf/N8uemxaJECsFqHY821bEDZ+shQziO+
30Rh/btLMuBo1C/KeZQ9n6Mq4fl0dtdOkz+yozthrgyzzWp3onwfqy1G0Q8gcEFq
5pyVSLlprPZ0pcnLf+XgUz50SitZu2zUUMnYI3tuBGZOCgmjRPEAGUJSZojLLOw=
-----END CERTIFICATE-----
