Certificate:
    Data:
        Version: 3 (0x2)
        Serial Number:
            66:4f:c3:77:65:70:2a:18:75:e2:bb:21:a0:59:cd:6e:37:a4:b2:51
        Signature Algorithm: sha256WithRSAEncryption
        Issuer: C=BR, ST=SC, L=Florianopolis, O=Bruno, OU=Matriz, CN=server.bruno.com/emailAddress=server@bruno.com
        Validity
            Not Before: Sep  6 12:04:24 2023 GMT
            Not After : Sep  5 12:04:24 2024 GMT
        Subject: C=BR, ST=SC, L=Florianopolis, O=Bruno, OU=Matriz, CN=client.bruno.com/emailAddress=client@bruno.com
        Subject Public Key Info:
            Public Key Algorithm: rsaEncryption
                RSA Public-Key: (2048 bit)
                Modulus:
                    00:bf:2b:09:c1:2e:77:5b:5b:1e:95:05:15:3b:c0:
                    e0:c2:89:07:cb:ed:65:be:d4:6f:d3:75:fc:cb:4a:
                    dc:c6:02:05:4d:68:e9:9b:93:95:d4:6d:61:e1:78:
                    9c:f5:85:79:cb:6e:e2:8d:05:95:b5:f4:5b:f5:fb:
                    71:eb:a3:55:5f:2f:1a:6b:98:dd:ae:f9:eb:e3:1a:
                    ec:32:9b:cd:3f:6c:60:69:99:0a:c2:6c:43:b5:d5:
                    27:4b:3b:6d:79:df:9e:e6:80:18:e4:e0:c6:9f:93:
                    70:fa:ea:fc:cf:4b:59:ba:44:16:43:07:c0:33:03:
                    96:bc:8d:71:e4:22:4d:a1:91:ca:1c:8c:d1:dd:34:
                    89:18:a5:31:f5:25:48:4b:d5:0a:d1:6a:04:47:c2:
                    cc:34:d1:25:b4:76:89:82:78:97:9e:b7:02:1e:07:
                    ea:68:60:a3:8d:23:e8:fb:81:ee:4f:da:c6:62:3b:
                    13:3b:df:17:12:dc:2e:77:05:ac:e3:c7:f1:b1:e8:
                    f9:d8:51:e0:52:06:a8:55:9a:12:c5:e0:87:dd:51:
                    ae:87:0d:dd:fc:3a:2f:2d:d9:a6:de:e6:56:24:25:
                    be:46:4c:c4:28:58:09:b4:fc:e9:5b:af:8d:02:81:
                    ab:42:83:fb:a6:41:09:85:76:47:f7:9e:fd:af:20:
                    cd:99
                Exponent: 65537 (0x10001)
        X509v3 extensions:
            X509v3 Basic Constraints: 
                CA:FALSE
            Netscape Comment: 
                OpenSSL Generated Certificate
            X509v3 Subject Key Identifier: 
                3F:62:43:2E:21:DC:A7:2E:D5:62:3E:12:D5:62:40:7D:9C:F2:5D:3F
            X509v3 Authority Key Identifier: 
                keyid:70:B9:AD:1D:F8:E8:F0:B3:33:7D:F2:03:AD:3B:52:09:AC:C8:FD:9E

    Signature Algorithm: sha256WithRSAEncryption
         28:37:00:45:2a:8a:93:ab:31:f1:35:39:86:7c:50:d4:83:36:
         0d:fb:de:44:f6:88:43:13:cb:0a:0d:dc:00:46:48:5b:ec:f0:
         ee:c5:bd:e4:a1:6a:31:3e:c8:cc:6d:ac:76:4a:fc:d6:b9:64:
         1b:f7:52:b6:a3:03:57:6a:ce:1f:44:f5:13:bb:00:f8:22:cb:
         12:6c:51:b0:db:28:b0:7b:7f:5f:c7:b4:bf:da:22:87:26:8c:
         26:23:1f:8d:5f:56:69:40:74:e4:61:ff:d4:1b:dd:1a:61:4d:
         f2:87:37:fc:18:7e:2c:60:15:49:50:47:5a:f6:a0:20:c9:7e:
         78:88:6d:2c:38:63:55:dd:e4:94:63:3e:f8:4d:89:0a:c8:06:
         9d:c2:a9:4f:a0:a5:2b:73:38:20:11:df:11:d0:e4:58:be:2d:
         09:48:9c:b3:5f:e0:ba:9a:f4:5c:12:56:fc:c5:23:50:a9:80:
         b8:32:08:67:bb:ec:d0:6f:90:d0:85:4e:d6:aa:17:ed:52:84:
         83:ed:b3:c3:2e:ce:02:cd:26:69:bc:cc:23:1e:bc:b8:03:f8:
         5e:76:83:8f:7a:ef:59:80:87:b4:df:6b:bb:6e:35:33:e0:44:
         54:3e:1d:36:eb:f0:4b:00:5f:a0:e7:e2:65:88:7d:42:a4:a2:
         79:9b:27:2d
-----BEGIN CERTIFICATE-----
MIIENTCCAx2gAwIBAgIUZk/Dd2VwKhh14rshoFnNbjekslEwDQYJKoZIhvcNAQEL
BQAwgZUxCzAJBgNVBAYTAkJSMQswCQYDVQQIDAJTQzEWMBQGA1UEBwwNRmxvcmlh
bm9wb2xpczEQMA4GA1UECgwHRGlnaXRybzEPMA0GA1UECwwGTWF0cml6MRswGQYD
VQQDDBJzZXJ2ZXIuZGlnaXRyby5jb20xITAfBgkqhkiG9w0BCQEWEnNlcnZlckBk
aWdpdHJvLmNvbTAeFw0yMzA5MDYxMjA0MjRaFw0yNDA5MDUxMjA0MjRaMIGVMQsw
CQYDVQQGEwJCUjELMAkGA1UECAwCU0MxFjAUBgNVBAcMDUZsb3JpYW5vcG9saXMx
EDAOBgNVBAoMB0RpZ2l0cm8xDzANBgNVBAsMBk1hdHJpejEbMBkGA1UEAwwSY2xp
ZW50LmRpZ2l0cm8uY29tMSEwHwYJKoZIhvcNAQkBFhJjbGllbnRAZGlnaXRyby5j
b20wggEiMA0GCSqGSIb3DQEBAQUAA4IBDwAwggEKAoIBAQC/KwnBLndbWx6VBRU7
wODCiQfL7WW+1G/TdfzLStzGAgVNaOmbk5XUbWHheJz1hXnLbuKNBZW19Fv1+3Hr
o1VfLxprmN2u+evjGuwym80/bGBpmQrCbEO11SdLO215357mgBjk4Mafk3D66vzP
S1m6RBZDB8AzA5a8jXHkIk2hkcocjNHdNIkYpTH1JUhL1QrRagRHwsw00SW0domC
eJeetwIeB+poYKONI+j7ge5P2sZiOxM73xcS3C53Bazjx/Gx6PnYUeBSBqhVmhLF
4IfdUa6HDd38Oi8t2abe5lYkJb5GTMQoWAm0/Olbr40CgatCg/umQQmFdkf3nv2v
IM2ZAgMBAAGjezB5MAkGA1UdEwQCMAAwLAYJYIZIAYb4QgENBB8WHU9wZW5TU0wg
R2VuZXJhdGVkIENlcnRpZmljYXRlMB0GA1UdDgQWBBQ/YkMuIdynLtViPhLVYkB9
nPJdPzAfBgNVHSMEGDAWgBRwua0d+OjwszN98gOtO1IJrMj9njANBgkqhkiG9w0B
AQsFAAOCAQEAKDcARSqKk6sx8TU5hnxQ1IM2DfveRPaIQxPLCg3cAEZIW+zw7sW9
5KFqMT7IzG2sdkr81rlkG/dStqMDV2rOH0T1E7sA+CLLEmxRsNsosHt/X8e0v9oi
hyaMJiMfjV9WaUB05GH/1BvdGmFN8oc3/Bh+LGAVSVBHWvagIMl+eIhtLDhjVd3k
lGM++E2JCsgGncKpT6ClK3M4IBHfEdDkWL4tCUics1/gupr0XBJW/MUjUKmAuDII
Z7vs0G+Q0IVO1qoX7VKEg+2zwy7OAs0mabzMIx68uAP4XnaDj3rvWYCHtN9ru241
M+BEVD4dNuvwSwBfoOfiZYh9QqSieZsnLQ==
-----END CERTIFICATE-----
