-----BEGIN RSA PRIVATE KEY-----
MIIEowIBAAKCAQEA0TOZBfjk467dyNn1LivbOYB2eh3DPbIRI1wQyrS/fxE2yrFi
gWPg+B6IrEFWbMY4raA4KZ5NgKq9myasWeKESYoOt94UFacQ0QKWWHN0g9Mq1dif
Wzg3JVNG1Ysd1qZ5bXIhwCgPFZZruqOZ+Vd70TMphKDPmCgo+YdadFnWr307fGW4
N/x2NkgU3eVkHsVRwJy3fZIS0vcV+Yt/OpwNQRGsymY4XdypLZyKDL1nUr7gxxk2
H4mgK0cOOyH3Kbh+lKMAheOI4blDZuhUntuZub4EK522+OstjdOijErJ9uKuJshe
FAkgDOgevKWOtVn7y3gWPvSCdwraLNQdICplQQIDAQABAoIBAGMlpRxjfXc65PnP
8pdTSa7S51Owz1tqDR1JANxRFYDPU7x0nU7dWz28muGohaE/wJTpHjT7RZf5U6s4
hO6EoFWKDLevlK0+ZIXqR/7bmRjw95gp9jxxRBF4ilWifR3CAEKSmNRNJ/j/NUdb
ShoWECRxrvegj0J5phG8yG3kNg8s22ZBJJH9zyRtcbMB61wmeS72kIjbOfitBM4T
e9/nsKG14nSZNpVyeMkL1l2Rh0a2SX8L/tvu4dMPZclzjnkUIaO2XuR/UUFJInK1
jPqirzqSXlQcm3nxJymNeNqcytQLTAy8UYmIDZrDWFJkmrwa/vmJ6dMIQBAA39Gk
1rPNl5ECgYEA80+OSVBcgRHRHEKdiGHQFc57SlaWgLUme/JXT8HwOXJzFJN4rQBb
HeA7yFDg7IHovsks24bKhxOxl/DQVSvbNjV9CwHtoKCSCHJfLOMFeKzsp61nHZQq
AabUtHMVEZkJK8uybs+0krQyQK/w9bp+PaA5LIVNpsDrr0lLdvf37nsCgYEA3Bym
SXWzAQaOuU2tFb7a4aImtJmEXdRNtGkNRD8cpBcYrOX1yxJDacb+UV2jZ4b5aEUG
Hpg80z+6tZ2ee5x0QXuItgcO0SN+sqHI86RdnTLqirHAcZRjiDESGQ5AMTjXbnFN
qmFtpfNj+zZetJoECbH7ANQK2+g535ngeWFtjHMCgYAYk8Svqyps7zvMOv5mtFqs
mTri+3QgdCv7ATPInrKBWwo83dimwQ5zKh9f0KunuEemXfPmCOuUUWzzCCRDNjbi
duy2m+9A9ndJ2yO6CQSYd/8/wMhVuI21tQBvaeCK8oZ2ohDYGKsI1qLs3djdOYVe
/DxKPvzlBz/HaQPydIHa2QKBgEPQM88ICwky2v/uFXhQn6DKU0Bq16QMx4/gmazA
APPxBbIm+w4AZ3KMU0gAIFrB888TDOqaHos65CwWDoCo2AxgoeLq077NP7iLLZ0a
s5i92hK25sJXZD7OV3QOtuozR/QHxlTKxXxOOyxnONBNbxcJlXpQ2bOcnU/tWYIr
6RNPAoGBALRxvDXJeOetwcg6inOasWKWvN2py4864ZgdWwYhodEDGEVT5EJ6Dcz5
+zf3YVpWlst97pui3V45HXltIJVbPhV77luqt+uJH0JfsDljN1lGh8uuWA0Qz1Hp
NiGTKceQYBPsXTaXrVq57tj+XdpI53vM2YlLUojuF578rX6SABBc
-----END RSA PRIVATE KEY-----
Certificate:
    Data:
        Version: 3 (0x2)
        Serial Number:
            66:4f:c3:77:65:70:2a:18:75:e2:bb:21:a0:59:cd:6e:37:a4:b2:50
        Signature Algorithm: sha256WithRSAEncryption
        Issuer: C=BR, ST=SC, L=Florianopolis, O=Bruno, OU=Matriz, CN=intca.bruno.com/emailAddress=intca@bruno.com
        Validity
            Not Before: Sep  6 12:04:23 2023 GMT
            Not After : Sep  5 12:04:23 2024 GMT
        Subject: C=BR, ST=SC, L=Florianopolis, O=Bruno, OU=Matriz, CN=server.bruno.com/emailAddress=server@bruno.com
        Subject Public Key Info:
            Public Key Algorithm: rsaEncryption
                RSA Public-Key: (2048 bit)
                Modulus:
                    00:d1:33:99:05:f8:e4:e3:ae:dd:c8:d9:f5:2e:2b:
                    db:39:80:76:7a:1d:c3:3d:b2:11:23:5c:10:ca:b4:
                    bf:7f:11:36:ca:b1:62:81:63:e0:f8:1e:88:ac:41:
                    56:6c:c6:38:ad:a0:38:29:9e:4d:80:aa:bd:9b:26:
                    ac:59:e2:84:49:8a:0e:b7:de:14:15:a7:10:d1:02:
                    96:58:73:74:83:d3:2a:d5:d8:9f:5b:38:37:25:53:
                    46:d5:8b:1d:d6:a6:79:6d:72:21:c0:28:0f:15:96:
                    6b:ba:a3:99:f9:57:7b:d1:33:29:84:a0:cf:98:28:
                    28:f9:87:5a:74:59:d6:af:7d:3b:7c:65:b8:37:fc:
                    76:36:48:14:dd:e5:64:1e:c5:51:c0:9c:b7:7d:92:
                    12:d2:f7:15:f9:8b:7f:3a:9c:0d:41:11:ac:ca:66:
                    38:5d:dc:a9:2d:9c:8a:0c:bd:67:52:be:e0:c7:19:
                    36:1f:89:a0:2b:47:0e:3b:21:f7:29:b8:7e:94:a3:
                    00:85:e3:88:e1:b9:43:66:e8:54:9e:db:99:b9:be:
                    04:2b:9d:b6:f8:eb:2d:8d:d3:a2:8c:4a:c9:f6:e2:
                    ae:26:c8:5e:14:09:20:0c:e8:1e:bc:a5:8e:b5:59:
                    fb:cb:78:16:3e:f4:82:77:0a:da:2c:d4:1d:20:2a:
                    65:41
                Exponent: 65537 (0x10001)
        X509v3 extensions:
            X509v3 Subject Key Identifier: 
                70:B9:AD:1D:F8:E8:F0:B3:33:7D:F2:03:AD:3B:52:09:AC:C8:FD:9E
            X509v3 Authority Key Identifier: 
                keyid:2C:AA:56:70:99:FE:B1:0F:A7:67:78:B1:E8:AD:F1:DE:7A:BD:C5:8A

            X509v3 Basic Constraints: critical
                CA:TRUE
    Signature Algorithm: sha256WithRSAEncryption
         6a:bf:e3:70:76:6d:1e:1e:eb:2c:cf:06:fb:9d:ec:ea:23:6e:
         5e:ef:f6:10:00:1c:70:01:d1:9a:81:92:d7:e8:bc:b6:25:6a:
         43:9f:64:75:1a:bc:95:26:4f:a2:00:21:35:10:56:f0:9a:de:
         a4:19:82:d6:3b:1a:62:e1:c2:cc:34:91:e2:0b:0b:4f:c9:28:
         a4:16:ae:77:b3:85:1b:d4:9b:31:80:43:59:b8:f0:01:20:96:
         2b:ed:78:e9:64:0c:d0:ba:16:63:43:4d:98:3f:1a:24:f3:76:
         ce:65:90:1c:b8:da:89:c3:5a:bb:c8:72:51:93:3b:34:4e:c6:
         cf:1a:aa:91:d5:87:f0:15:5b:b6:a9:53:6d:71:b5:47:24:65:
         2d:fb:6c:aa:b7:26:02:88:8b:f4:8b:8c:c9:fb:11:5f:42:bb:
         a8:bf:b0:ce:90:f2:4c:b9:25:0f:6c:e3:d9:7f:b0:3b:24:4e:
         30:ff:34:26:f0:5e:42:43:46:0d:2c:c3:60:95:99:00:bd:0e:
         ce:cd:b6:b3:65:45:01:d8:59:95:56:b1:b5:69:75:5c:d1:e7:
         8e:49:32:d4:40:25:7d:72:96:e8:92:08:33:74:9f:32:4d:a2:
         96:e5:7a:52:c8:7a:43:a7:ad:4c:ca:01:5c:50:f7:04:ed:b9:
         de:ee:f0:49:e4:a0:f4:b2:8f:6f:53:5d:e9:28:be:2f:4f:fe:
         6f:a1:00:a7:57:db:5d:fd:ec:9d:96:a5:a4:4f:26:42:1a:c7:
         f7:49:b2:1e:cf:a2:08:da:30:1e:af:3a:c3:9b:70:11:cd:13:
         02:f5:6e:5a:ae:90:63:e2:b7:2d:f7:16:37:9b:2c:53:2d:8f:
         f8:1c:f2:2c:7f:7c:bc:0c:e6:79:7e:6e:76:9f:73:f9:28:53:
         48:71:e9:01:31:49:a3:3c:07:ed:97:bb:12:84:bd:98:46:12:
         b3:a9:a3:62:f7:91:3c:c8:97:95:e1:b4:d2:41:5d:8e:10:64:
         e5:c1:5e:20:ce:1b:c9:f0:1f:76:18:24:e6:63:9b:2a:99:fa:
         4a:ae:57:a8:7f:5b:df:5b:31:09:de:4e:0a:83:41:12:cf:63:
         37:5e:ae:18:1b:bc:15:1a:a8:04:ce:7b:14:a7:96:9a:ec:ca:
         cc:2b:03:59:16:5b:e2:37:6a:40:27:6c:86:04:f1:5f:1c:64:
         90:27:dd:1e:d6:dc:16:90:2b:57:3b:87:58:d7:35:dd:92:c5:
         bc:98:2e:5d:5c:94:ae:62:29:39:b5:00:80:99:b2:ea:8c:db:
         09:d0:80:5e:63:1e:3b:af:03:90:2b:91:11:94:6c:80:f5:34:
         e7:ec:e4:16:c6:7b:b8:16
-----BEGIN CERTIFICATE-----
MIIFCzCCAvOgAwIBAgIUZk/Dd2VwKhh14rshoFnNbjekslAwDQYJKoZIhvcNAQEL
BQAwgZMxCzAJBgNVBAYTAkJSMQswCQYDVQQIDAJTQzEWMBQGA1UEBwwNRmxvcmlh
bm9wb2xpczEQMA4GA1UECgwHRGlnaXRybzEPMA0GA1UECwwGTWF0cml6MRowGAYD
VQQDDBFpbnRjYS5kaWdpdHJvLmNvbTEgMB4GCSqGSIb3DQEJARYRaW50Y2FAZGln
aXRyby5jb20wHhcNMjMwOTA2MTIwNDIzWhcNMjQwOTA1MTIwNDIzWjCBlTELMAkG
A1UEBhMCQlIxCzAJBgNVBAgMAlNDMRYwFAYDVQQHDA1GbG9yaWFub3BvbGlzMRAw
DgYDVQQKDAdEaWdpdHJvMQ8wDQYDVQQLDAZNYXRyaXoxGzAZBgNVBAMMEnNlcnZl
ci5kaWdpdHJvLmNvbTEhMB8GCSqGSIb3DQEJARYSc2VydmVyQGRpZ2l0cm8uY29t
MIIBIjANBgkqhkiG9w0BAQEFAAOCAQ8AMIIBCgKCAQEA0TOZBfjk467dyNn1Livb
OYB2eh3DPbIRI1wQyrS/fxE2yrFigWPg+B6IrEFWbMY4raA4KZ5NgKq9myasWeKE
SYoOt94UFacQ0QKWWHN0g9Mq1difWzg3JVNG1Ysd1qZ5bXIhwCgPFZZruqOZ+Vd7
0TMphKDPmCgo+YdadFnWr307fGW4N/x2NkgU3eVkHsVRwJy3fZIS0vcV+Yt/OpwN
QRGsymY4XdypLZyKDL1nUr7gxxk2H4mgK0cOOyH3Kbh+lKMAheOI4blDZuhUntuZ
ub4EK522+OstjdOijErJ9uKuJsheFAkgDOgevKWOtVn7y3gWPvSCdwraLNQdICpl
QQIDAQABo1MwUTAdBgNVHQ4EFgQUcLmtHfjo8LMzffIDrTtSCazI/Z4wHwYDVR0j
BBgwFoAULKpWcJn+sQ+nZ3ix6K3x3nq9xYowDwYDVR0TAQH/BAUwAwEB/zANBgkq
hkiG9w0BAQsFAAOCAgEAar/jcHZtHh7rLM8G+53s6iNuXu/2EAAccAHRmoGS1+i8
tiVqQ59kdRq8lSZPogAhNRBW8JrepBmC1jsaYuHCzDSR4gsLT8kopBaud7OFG9Sb
MYBDWbjwASCWK+146WQM0LoWY0NNmD8aJPN2zmWQHLjaicNau8hyUZM7NE7Gzxqq
kdWH8BVbtqlTbXG1RyRlLftsqrcmAoiL9IuMyfsRX0K7qL+wzpDyTLklD2zj2X+w
OyROMP80JvBeQkNGDSzDYJWZAL0Ozs22s2VFAdhZlVaxtWl1XNHnjkky1EAlfXKW
6JIIM3SfMk2iluV6Ush6Q6etTMoBXFD3BO253u7wSeSg9LKPb1Nd6Si+L0/+b6EA
p1fbXf3snZalpE8mQhrH90myHs+iCNowHq86w5twEc0TAvVuWq6QY+K3LfcWN5ss
Uy2P+BzyLH98vAzmeX5udp9z+ShTSHHpATFJozwH7Ze7EoS9mEYSs6mjYveRPMiX
leG00kFdjhBk5cFeIM4byfAfdhgk5mObKpn6Sq5XqH9b31sxCd5OCoNBEs9jN16u
GBu8FRqoBM57FKeWmuzKzCsDWRZb4jdqQCdshgTxXxxkkCfdHtbcFpArVzuHWNc1
3ZLFvJguXVyUrmIpObUAgJmy6ozbCdCAXmMeO68DkCuREZRsgPU05+zkFsZ7uBY=
-----END CERTIFICATE-----
Certificate:
    Data:
        Version: 3 (0x2)
        Serial Number:
            66:4f:c3:77:65:70:2a:18:75:e2:bb:21:a0:59:cd:6e:37:a4:b2:4f
        Signature Algorithm: sha256WithRSAEncryption
        Issuer: C=BR, ST=SC, O=Bruno, OU=Matriz, CN=ca.bruno.com/emailAddress=ca@bruno.com
        Validity
            Not Before: Sep  6 12:04:22 2023 GMT
            Not After : Sep  5 12:04:22 2024 GMT
        Subject: C=BR, ST=SC, L=Florianopolis, O=Bruno, OU=Matriz, CN=intca.bruno.com/emailAddress=intca@bruno.com
        Subject Public Key Info:
            Public Key Algorithm: rsaEncryption
                RSA Public-Key: (4096 bit)
                Modulus:
                    00:e3:ea:4c:3c:26:40:ce:15:77:30:08:95:ba:44:
                    e9:12:a3:d4:9f:4d:52:44:7a:52:e7:d4:c8:ea:51:
                    4e:a0:02:c9:82:9c:79:f5:27:bf:5f:c7:73:2f:23:
                    b4:d5:90:3a:3f:63:1a:c6:db:72:88:61:35:7e:f6:
                    5d:e8:13:93:f2:04:f6:d5:b3:7f:64:bb:3a:77:f4:
                    65:93:49:56:3a:5a:1f:d8:60:47:68:db:20:74:79:
                    cc:6b:88:36:ab:64:bc:13:68:0f:49:15:d4:1a:0f:
                    5f:c5:78:aa:0f:f0:14:df:be:cd:0a:0f:35:47:3c:
                    99:80:78:58:05:cc:f1:2b:3d:22:81:d6:71:4a:77:
                    3a:cd:ff:5b:00:7a:51:d0:9c:aa:8c:80:5f:12:a8:
                    22:c1:73:56:ca:d8:3f:7b:33:8a:b1:7e:5e:37:7a:
                    e3:99:c3:4e:a5:18:74:b4:64:17:91:82:bd:d1:f1:
                    ec:a1:0f:8c:c2:23:2e:16:38:0f:59:23:fa:59:5b:
                    72:e2:57:b9:72:67:b9:65:9a:ae:32:34:79:31:71:
                    43:9d:d2:11:a3:3e:67:5d:6d:c6:10:5c:be:18:bb:
                    1b:31:7c:62:a8:0d:ae:15:01:4e:03:69:7a:3f:8c:
                    33:a4:83:b9:7c:fe:bd:a6:98:c8:f6:5b:72:b7:88:
                    1f:a3:f4:e6:2d:84:62:13:4e:d1:06:d6:5f:1f:b9:
                    7f:be:8f:42:12:3b:5f:94:06:e6:3e:6c:e1:6e:b1:
                    fb:01:6a:8d:a1:14:23:8a:c1:92:6f:d3:cc:98:ec:
                    90:fa:2a:01:82:4c:78:2f:93:24:51:c1:d5:0c:5a:
                    25:88:b0:de:bd:cc:96:20:8c:30:3f:ed:f4:ca:35:
                    f3:8e:c4:1a:65:0c:06:5a:90:8d:b4:ac:8b:dd:91:
                    1b:c6:34:d1:d4:8b:4e:fa:c2:9a:57:a0:6c:42:a2:
                    a8:74:64:2b:dc:bf:91:f2:f1:4b:3d:08:3d:4e:f8:
                    66:d7:bd:fe:ab:ab:8e:97:8f:58:b9:1e:54:89:f4:
                    ab:c4:a0:33:48:3e:97:1c:28:89:44:75:ad:10:e3:
                    a8:ef:78:5e:da:fa:66:0d:02:25:46:30:37:33:a4:
                    e9:8d:02:59:db:66:73:cb:0a:ee:64:82:9b:79:9e:
                    ae:00:86:84:2f:57:ec:61:41:8e:5d:2e:87:3d:ff:
                    de:cd:f7:92:7d:62:94:4e:80:67:32:91:83:dd:c2:
                    8c:21:f2:96:db:3e:46:6f:52:a2:de:b8:a0:f9:cd:
                    70:60:78:8a:e4:33:7a:ee:23:6f:04:a8:41:d2:68:
                    45:81:54:73:c9:97:79:5f:25:4c:eb:79:fa:8d:82:
                    f3:fc:09
                Exponent: 65537 (0x10001)
        X509v3 extensions:
            X509v3 Subject Key Identifier: 
                2C:AA:56:70:99:FE:B1:0F:A7:67:78:B1:E8:AD:F1:DE:7A:BD:C5:8A
            X509v3 Authority Key Identifier: 
                keyid:1D:40:C3:EA:12:D1:4D:9D:C5:A3:0D:87:CC:F9:71:B0:43:B4:0A:EE

            X509v3 Basic Constraints: critical
                CA:TRUE
    Signature Algorithm: sha256WithRSAEncryption
         bb:69:9b:bc:d1:a8:96:28:81:8b:40:8b:60:0b:96:99:28:a6:
         f8:9d:fb:27:d3:89:df:78:73:e4:54:6d:0c:f2:2f:14:51:02:
         f1:2e:1c:6e:3d:ec:c5:bb:bf:9d:1b:fd:c6:93:82:ec:e3:af:
         be:67:29:eb:e9:8f:6e:65:ed:42:12:c7:ab:2b:73:40:2e:e1:
         90:b0:9f:45:6b:e7:46:c4:25:15:5b:75:3b:10:cc:0f:5f:7f:
         17:61:f4:d3:f2:3e:f0:88:30:57:46:6e:02:83:53:64:20:68:
         fd:7b:01:49:21:c4:1c:fa:4c:c8:15:8e:01:98:39:26:f4:6c:
         af:1d:79:f3:7e:a8:a0:cc:43:d8:f7:22:3f:e0:f6:88:71:62:
         7d:f6:1f:f3:c5:71:a4:bf:ee:d8:22:24:94:3e:04:ae:7a:1c:
         d5:e4:bf:10:3b:05:e1:e1:f0:eb:e0:a1:3e:25:a1:46:88:d5:
         f8:63:7c:3f:76:b6:9c:3c:71:8c:3e:62:a3:99:d0:9d:79:70:
         3d:3b:47:83:b9:0f:1a:21:65:fb:70:e2:09:45:50:a4:43:36:
         d7:63:1d:fe:d9:5d:d5:e6:37:af:86:08:8e:fd:52:2d:b6:5f:
         e4:48:29:d2:16:0c:53:72:55:50:3b:b4:1c:8e:a2:9b:28:8b:
         8b:db:f0:a1:0d:dc:ad:44:91:67:0a:ec:8f:ac:69:76:07:f8:
         28:57:b6:64:94:37:0b:2f:cc:ed:d8:1f:e3:11:ee:49:be:76:
         5c:96:5d:6b:91:4d:0b:6a:ee:fd:09:a8:93:45:e0:91:01:6a:
         12:70:a4:f6:fb:fe:dc:52:7c:c2:ed:bb:6d:4b:ec:1b:51:a1:
         e9:29:51:9d:f5:dd:36:23:bb:5f:db:e8:78:49:d6:e6:14:5f:
         e1:36:d2:34:05:66:41:a5:06:1e:da:a0:e6:51:99:34:ec:14:
         21:0e:69:79:f8:f9:b1:d7:10:3d:8c:fd:62:ea:e0:c6:31:88:
         d3:a1:4a:cc:b5:d0:76:74:1f:a4:e4:ff:c9:0a:c3:4d:df:40:
         c3:0d:53:11:d7:4e:77:c7:1b:14:1c:19:d7:74:b7:a2:1b:2d:
         55:62:f7:a8:47:77:ee:c2:e5:0b:e4:d0:97:f1:80:63:28:17:
         6c:c4:94:8c:81:c2:55:dc:f7:0d:2b:7d:c7:a7:54:a5:ff:80:
         c0:26:aa:68:b3:8c:40:3a:d4:09:ff:5a:06:f4:0b:0e:c9:57:
         1d:06:da:cc:16:73:a0:72:22:dd:a7:cb:77:2d:5e:49:cd:2d:
         3b:fb:98:01:0d:eb:c0:7f:50:18:dc:d4:51:f1:c8:f4:37:b8:
         3e:23:6f:8d:0a:40:32:e8
-----BEGIN CERTIFICATE-----
MIIF6jCCA9KgAwIBAgIUZk/Dd2VwKhh14rshoFnNbjeksk8wDQYJKoZIhvcNAQEL
BQAwdTELMAkGA1UEBhMCQlIxCzAJBgNVBAgMAlNDMRAwDgYDVQQKDAdEaWdpdHJv
MQ8wDQYDVQQLDAZNYXRyaXoxFzAVBgNVBAMMDmNhLmRpZ2l0cm8uY29tMR0wGwYJ
KoZIhvcNAQkBFg5jYUBkaWdpdHJvLmNvbTAeFw0yMzA5MDYxMjA0MjJaFw0yNDA5
MDUxMjA0MjJaMIGTMQswCQYDVQQGEwJCUjELMAkGA1UECAwCU0MxFjAUBgNVBAcM
DUZsb3JpYW5vcG9saXMxEDAOBgNVBAoMB0RpZ2l0cm8xDzANBgNVBAsMBk1hdHJp
ejEaMBgGA1UEAwwRaW50Y2EuZGlnaXRyby5jb20xIDAeBgkqhkiG9w0BCQEWEWlu
dGNhQGRpZ2l0cm8uY29tMIICIjANBgkqhkiG9w0BAQEFAAOCAg8AMIICCgKCAgEA
4+pMPCZAzhV3MAiVukTpEqPUn01SRHpS59TI6lFOoALJgpx59Se/X8dzLyO01ZA6
P2MaxttyiGE1fvZd6BOT8gT21bN/ZLs6d/Rlk0lWOlof2GBHaNsgdHnMa4g2q2S8
E2gPSRXUGg9fxXiqD/AU377NCg81RzyZgHhYBczxKz0igdZxSnc6zf9bAHpR0Jyq
jIBfEqgiwXNWytg/ezOKsX5eN3rjmcNOpRh0tGQXkYK90fHsoQ+MwiMuFjgPWSP6
WVty4le5cme5ZZquMjR5MXFDndIRoz5nXW3GEFy+GLsbMXxiqA2uFQFOA2l6P4wz
pIO5fP69ppjI9ltyt4gfo/TmLYRiE07RBtZfH7l/vo9CEjtflAbmPmzhbrH7AWqN
oRQjisGSb9PMmOyQ+ioBgkx4L5MkUcHVDFoliLDevcyWIIwwP+30yjXzjsQaZQwG
WpCNtKyL3ZEbxjTR1ItO+sKaV6BsQqKodGQr3L+R8vFLPQg9Tvhm173+q6uOl49Y
uR5UifSrxKAzSD6XHCiJRHWtEOOo73he2vpmDQIlRjA3M6TpjQJZ22ZzywruZIKb
eZ6uAIaEL1fsYUGOXS6HPf/ezfeSfWKUToBnMpGD3cKMIfKW2z5Gb1Ki3rig+c1w
YHiK5DN67iNvBKhB0mhFgVRzyZd5XyVM63n6jYLz/AkCAwEAAaNTMFEwHQYDVR0O
BBYEFCyqVnCZ/rEPp2d4seit8d56vcWKMB8GA1UdIwQYMBaAFB1Aw+oS0U2dxaMN
h8z5cbBDtAruMA8GA1UdEwEB/wQFMAMBAf8wDQYJKoZIhvcNAQELBQADggIBALtp
m7zRqJYogYtAi2ALlpkopvid+yfTid94c+RUbQzyLxRRAvEuHG497MW7v50b/caT
guzjr75nKevpj25l7UISx6src0Au4ZCwn0Vr50bEJRVbdTsQzA9ffxdh9NPyPvCI
MFdGbgKDU2QgaP17AUkhxBz6TMgVjgGYOSb0bK8defN+qKDMQ9j3Ij/g9ohxYn32
H/PFcaS/7tgiJJQ+BK56HNXkvxA7BeHh8OvgoT4loUaI1fhjfD92tpw8cYw+YqOZ
0J15cD07R4O5DxohZftw4glFUKRDNtdjHf7ZXdXmN6+GCI79Ui22X+RIKdIWDFNy
VVA7tByOopsoi4vb8KEN3K1EkWcK7I+saXYH+ChXtmSUNwsvzO3YH+MR7km+dlyW
XWuRTQtq7v0JqJNF4JEBahJwpPb7/txSfMLtu21L7BtRoekpUZ313TYju1/b6HhJ
1uYUX+E20jQFZkGlBh7aoOZRmTTsFCEOaXn4+bHXED2M/WLq4MYxiNOhSsy10HZ0
H6Tk/8kKw03fQMMNUxHXTnfHGxQcGdd0t6IbLVVi96hHd+7C5Qvk0JfxgGMoF2zE
lIyBwlXc9w0rfcenVKX/gMAmqmizjEA61An/Wgb0Cw7JVx0G2swWc6ByIt2ny3ct
XknNLTv7mAEN68B/UBjc1FHxyPQ3uD4jb40KQDLo
-----END CERTIFICATE-----
