-----BEGIN PRIVATE KEY-----
MIIEvQIBADANBgkqhkiG9w0BAQEFAASCBKcwggSjAgEAAoIBAQC9ZyO3+3xsQxlt
Xe1ggu4Al0FXQuODzAhhMLClphcq+Yx2C8ScwzNUjbQjNOlgpqvzNglQIyTTrQzs
DQTk50GLcoIXS/2FaAv860l6YUL/SbnFOKqYtBobpM0AKg2BiQH7zYG8LGhquFA7
vMlm/w2UqFimQbj6LZ0eUwPZ7iqpLDFLZjQuqBg8173ShbIpUTaLLL9s089sBhAD
UrLaUxrle/JMajAW73SliJgRhsSmEhlUb0+PetpiXUl6fnj47jvT0j+4KnBPzE3Z
vmOYqLM1LeFvFau4OYb/cSK/atr9RNfDPyADBVvDvWULSqelkLIOJFr0FudltnkF
vZR7L9ZRAgMBAAECggEAGGLNMIUKsg25mmE7jO+OoTjYStnr3S5J7emM9Ob7mKbk
tNYzDFP9qedMyDOp0K3k+b19WXoM5cwkG8hZVveHcuLdaQ55p9GLqZbJsR4QuDnP
11rCbELUEbcYReskLgdr3/XHvGijUQpGGkrmS4KPRxKdx1oy7NMupZbeqhKGH52+
HsScDivQ/kEFp5H/wE1hkZ0+/CypxohVcCC6Cewww4j3Z0a5a4aZgeUac5U2i7HS
4PxHxlDM+vXOAWvYv1fy3b2V9PwU5wwEpi/2NP31PEDqNgfKoTBiU3HCK5uDWwzZ
VHxsRH1umekC9egmAapVcVHoEU/77DuD8IBeKf59oQKBgQDu7tvlmnUZOux0STtg
RuSJWvpbcbQsByzAi1MELrinjs7AMIQI1+CrmnBZDE9eXOykwPmsizJmdkKbY3q6
+6x01HSq9vL3wHnr0/cr4E33rHc+GfCUREa4omGQXc7WIa3RHFi6hCJ3Ypa5i4+H
r76B5sXZE/Ul76Ony/IYE0VcBQKBgQDK7pHd4FqVXXtHVXteQO0isO47KY2HBWY0
kw5cfiYMrg+WOFpkGUE87E//pt9aH2OC7p+KycWnFLwNzWq1GB26clYgeoaZK5mg
wdxxZVeSBiFLr19xlyvrMNL3XleqnNfB/BlnWVX3Bw5fUgHBrCXUTEf0J9n/OYi1
jl7aM/Su3QKBgQDuXjHXIH8OSrC3Wo/3/wHk3nTCYe9jtUy6UsTheVMTJu+w4TX4
NJaZ3JuU2ykbdQ1JWJQ9xSjk+7p7l4VLoeVtML+sCG5hKQ75bSA8D6z5GIBl3i8b
W/pKHQXEpzHAgx0Lb4I9obFY9Wx1c3wf2/7tTbO4W6bI0AivUFIYHrGlmQKBgHdP
Kj17wWYdzvQSovS4UXNa+MWZ2ZavqvZwGzpwBGjiEVHtkd9WJc/u093nu1teJwB8
0RolJOrluuaWhg0wv5G11UNFJkt5odotADE/NuwoZHz9/6xmB7FARFihhANQMV3g
nQLxOCSDZoTOTzARyS/3JTq8D2QJ7IFp0gSSFWKVAoGAN+RzC8hImQ/kHd6qjp7X
ik0rYGcyv1K97bTrwtudbahnZgLPQqAKJFzvg3zVk7DdsQc9+BShykn1uGP9FOIM
iwVTMR3RRsx7CBL1B2UR1g/Wj/cHT8VjVbuePx5q6owks7iuThLL3dyFsKCoWRxr
fN1qWL9JS3B8KQZ5QFV7Cdw=
-----END PRIVATE KEY-----
Certificate:
    Data:
        Version: 3 (0x2)
        Serial Number:
            25:eb:da:9e:1b:fc:c2:e8:6d:10:05:59:4d:8e:35:f1:5c:1a:73:3c
        Signature Algorithm: sha256WithRSAEncryption
        Issuer: C=BR, ST=SC, L=Florianopolis, O=Bruno, OU=Matriz, CN=intca.bruno.com/emailAddress=intca@bruno.com
        Validity
            Not Before: Sep 14 23:12:37 2025 GMT
            Not After : Sep 14 23:12:37 2026 GMT
        Subject: C=BR, ST=SC, L=Florianopolis, O=Bruno, OU=Matriz, CN=server.bruno.com/emailAddress=server@bruno.com
        Subject Public Key Info:
            Public Key Algorithm: rsaEncryption
                Public-Key: (2048 bit)
                Modulus:
                    00:bd:67:23:b7:fb:7c:6c:43:19:6d:5d:ed:60:82:
                    ee:00:97:41:57:42:e3:83:cc:08:61:30:b0:a5:a6:
                    17:2a:f9:8c:76:0b:c4:9c:c3:33:54:8d:b4:23:34:
                    e9:60:a6:ab:f3:36:09:50:23:24:d3:ad:0c:ec:0d:
                    04:e4:e7:41:8b:72:82:17:4b:fd:85:68:0b:fc:eb:
                    49:7a:61:42:ff:49:b9:c5:38:aa:98:b4:1a:1b:a4:
                    cd:00:2a:0d:81:89:01:fb:cd:81:bc:2c:68:6a:b8:
                    50:3b:bc:c9:66:ff:0d:94:a8:58:a6:41:b8:fa:2d:
                    9d:1e:53:03:d9:ee:2a:a9:2c:31:4b:66:34:2e:a8:
                    18:3c:d7:bd:d2:85:b2:29:51:36:8b:2c:bf:6c:d3:
                    cf:6c:06:10:03:52:b2:da:53:1a:e5:7b:f2:4c:6a:
                    30:16:ef:74:a5:88:98:11:86:c4:a6:12:19:54:6f:
                    4f:8f:7a:da:62:5d:49:7a:7e:78:f8:ee:3b:d3:d2:
                    3f:b8:2a:70:4f:cc:4d:d9:be:63:98:a8:b3:35:2d:
                    e1:6f:15:ab:b8:39:86:ff:71:22:bf:6a:da:fd:44:
                    d7:c3:3f:20:03:05:5b:c3:bd:65:0b:4a:a7:a5:90:
                    b2:0e:24:5a:f4:16:e7:65:b6:79:05:bd:94:7b:2f:
                    d6:51
                Exponent: 65537 (0x10001)
        X509v3 extensions:
            X509v3 Subject Key Identifier: 
                13:9C:43:CD:F3:9D:8B:01:A6:9A:52:85:1C:05:C0:FE:73:7A:06:43
            X509v3 Authority Key Identifier: 
                B4:75:E6:94:B4:82:37:DF:6B:3F:93:0E:66:CE:63:DE:54:C3:96:34
            X509v3 Basic Constraints: critical
                CA:TRUE
    Signature Algorithm: sha256WithRSAEncryption
    Signature Value:
        44:a1:28:f1:84:63:89:06:43:af:94:4b:06:7f:87:ed:37:ea:
        ac:1c:e2:ba:00:e9:02:2e:cb:54:b2:82:04:a2:1e:9e:78:a4:
        f0:91:15:c4:fc:62:ae:e6:e5:fd:cf:b1:fc:2c:b7:bf:4f:e3:
        30:1a:be:1a:3c:ba:79:6e:f8:79:a8:c2:8e:44:1a:db:a9:f5:
        9c:bc:d4:a5:c9:0d:9e:e4:ee:34:c4:34:31:48:b5:fc:74:79:
        19:50:65:5f:f6:a4:39:3f:c9:70:0f:d1:c2:bd:86:c7:e3:a9:
        dc:67:5b:c2:bb:8f:bb:28:d8:17:0b:26:73:bd:9a:be:5f:e8:
        31:f6:3b:11:a1:cc:b5:56:50:e6:ff:86:7a:b8:53:ee:47:93:
        ad:55:a4:ce:ba:6b:f7:f4:f9:a1:bb:92:47:40:b8:b3:ef:da:
        0a:9c:a0:c9:a8:f0:31:65:91:aa:fb:c2:5f:e6:cc:ca:a4:cc:
        bc:7c:7d:dc:a2:e0:2b:93:10:41:c2:0b:7b:f0:b5:12:f9:3e:
        7c:1c:4f:2f:5d:e9:58:26:0f:b7:6c:8c:6e:72:7e:d4:1d:d1:
        07:eb:eb:45:bd:6b:fa:48:ee:d0:09:f4:4d:0b:69:4c:13:4f:
        1a:1e:10:4a:b5:1b:b1:c7:39:97:84:d7:1a:4b:4c:82:ed:91:
        15:71:d3:46:af:eb:e2:a9:18:20:04:0b:24:d8:78:49:80:4c:
        01:b5:26:19:ea:68:82:5f:58:ee:23:4e:09:72:ac:3d:03:ca:
        61:1c:cb:72:42:a3:cb:85:dc:9b:4a:5e:7d:27:1c:33:59:43:
        09:96:e6:3e:e6:b4:3a:8c:95:c4:91:3a:c5:f7:17:e1:8f:b0:
        fd:7d:5a:35:1d:4f:7c:e5:58:e8:83:56:6c:40:0d:66:42:6d:
        0a:d9:ac:0c:f0:b2:ba:63:d6:66:32:45:cd:53:62:b1:24:90:
        1e:1d:6d:12:4b:f7:a1:77:ae:91:f0:63:70:ae:a8:ff:d1:7e:
        fd:12:00:7c:d7:be:99:67:6c:80:b5:03:4f:19:1e:98:42:f1:
        77:75:1a:b7:e2:1c:a0:02:b3:f2:04:b1:4c:76:30:ba:14:95:
        e4:1c:d7:81:1f:f6:0a:3b:ac:5f:82:36:d3:09:24:3d:3f:c5:
        57:40:4c:13:3c:9c:31:b3:72:53:f8:33:82:e4:29:5c:db:64:
        ac:37:d2:9c:44:e2:5e:70:63:de:3d:6c:fc:ae:09:1c:73:a3:
        70:db:08:eb:2a:01:49:e4:23:73:8a:93:bc:05:2a:e3:f2:d0:
        e2:13:e9:f8:3c:83:34:e0:8f:86:c2:4a:f4:e0:4f:5f:6c:d4:
        b8:3b:19:53:b2:4d:97:db
-----BEGIN CERTIFICATE-----
MIIE/zCCAuegAwIBAgIUJevanhv8wuhtEAVZTY418VwaczwwDQYJKoZIhvcNAQEL
BQAwgY0xCzAJBgNVBAYTAkJSMQswCQYDVQQIDAJTQzEWMBQGA1UEBwwNRmxvcmlh
bm9wb2xpczEOMAwGA1UECgwFQnJ1bm8xDzANBgNVBAsMBk1hdHJpejEYMBYGA1UE
AwwPaW50Y2EuYnJ1bm8uY29tMR4wHAYJKoZIhvcNAQkBFg9pbnRjYUBicnVuby5j
b20wHhcNMjUwOTE0MjMxMjM3WhcNMjYwOTE0MjMxMjM3WjCBjzELMAkGA1UEBhMC
QlIxCzAJBgNVBAgMAlNDMRYwFAYDVQQHDA1GbG9yaWFub3BvbGlzMQ4wDAYDVQQK
DAVCcnVubzEPMA0GA1UECwwGTWF0cml6MRkwFwYDVQQDDBBzZXJ2ZXIuYnJ1bm8u
Y29tMR8wHQYJKoZIhvcNAQkBFhBzZXJ2ZXJAYnJ1bm8uY29tMIIBIjANBgkqhkiG
9w0BAQEFAAOCAQ8AMIIBCgKCAQEAvWcjt/t8bEMZbV3tYILuAJdBV0Ljg8wIYTCw
paYXKvmMdgvEnMMzVI20IzTpYKar8zYJUCMk060M7A0E5OdBi3KCF0v9hWgL/OtJ
emFC/0m5xTiqmLQaG6TNACoNgYkB+82BvCxoarhQO7zJZv8NlKhYpkG4+i2dHlMD
2e4qqSwxS2Y0LqgYPNe90oWyKVE2iyy/bNPPbAYQA1Ky2lMa5XvyTGowFu90pYiY
EYbEphIZVG9Pj3raYl1Jen54+O4709I/uCpwT8xN2b5jmKizNS3hbxWruDmG/3Ei
v2ra/UTXwz8gAwVbw71lC0qnpZCyDiRa9BbnZbZ5Bb2Uey/WUQIDAQABo1MwUTAd
BgNVHQ4EFgQUE5xDzfOdiwGmmlKFHAXA/nN6BkMwHwYDVR0jBBgwFoAUtHXmlLSC
N99rP5MOZs5j3lTDljQwDwYDVR0TAQH/BAUwAwEB/zANBgkqhkiG9w0BAQsFAAOC
AgEARKEo8YRjiQZDr5RLBn+H7TfqrBziugDpAi7LVLKCBKIennik8JEVxPxirubl
/c+x/Cy3v0/jMBq+Gjy6eW74eajCjkQa26n1nLzUpckNnuTuNMQ0MUi1/HR5GVBl
X/akOT/JcA/Rwr2Gx+Op3GdbwruPuyjYFwsmc72avl/oMfY7EaHMtVZQ5v+GerhT
7keTrVWkzrpr9/T5obuSR0C4s+/aCpygyajwMWWRqvvCX+bMyqTMvHx93KLgK5MQ
QcILe/C1Evk+fBxPL13pWCYPt2yMbnJ+1B3RB+vrRb1r+kju0An0TQtpTBNPGh4Q
SrUbscc5l4TXGktMgu2RFXHTRq/r4qkYIAQLJNh4SYBMAbUmGepogl9Y7iNOCXKs
PQPKYRzLckKjy4Xcm0pefSccM1lDCZbmPua0OoyVxJE6xfcX4Y+w/X1aNR1PfOVY
6INWbEANZkJtCtmsDPCyumPWZjJFzVNisSSQHh1tEkv3oXeukfBjcK6o/9F+/RIA
fNe+mWdsgLUDTxkemELxd3Uat+IcoAKz8gSxTHYwuhSV5BzXgR/2CjusX4I20wkk
PT/FV0BMEzycMbNyU/gzguQpXNtkrDfSnETiXnBj3j1s/K4JHHOjcNsI6yoBSeQj
c4qTvAUq4/LQ4hPp+DyDNOCPhsJK9OBPX2zUuDsZU7JNl9s=
-----END CERTIFICATE-----
Certificate:
    Data:
        Version: 3 (0x2)
        Serial Number:
            25:eb:da:9e:1b:fc:c2:e8:6d:10:05:59:4d:8e:35:f1:5c:1a:73:3b
        Signature Algorithm: sha256WithRSAEncryption
        Issuer: C=BR, ST=SC, O=Bruno, OU=Matriz, CN=ca.bruno.com/emailAddress=ca@bruno.com
        Validity
            Not Before: Sep 14 23:12:37 2025 GMT
            Not After : Sep 14 23:12:37 2026 GMT
        Subject: C=BR, ST=SC, L=Florianopolis, O=Bruno, OU=Matriz, CN=intca.bruno.com/emailAddress=intca@bruno.com
        Subject Public Key Info:
            Public Key Algorithm: rsaEncryption
                Public-Key: (4096 bit)
                Modulus:
                    00:d4:7c:99:82:96:42:fe:8c:11:2d:69:82:c3:b9:
                    29:85:c9:20:74:9e:c5:ac:66:ba:c3:f6:65:29:8e:
                    08:ec:78:2e:85:4b:99:34:e3:c0:86:ad:72:ba:8b:
                    39:fc:28:ba:04:85:d4:ee:00:50:dd:fb:41:14:bc:
                    61:a3:af:d9:54:2f:a2:50:33:4a:83:59:4b:f4:b9:
                    32:c2:c3:b1:e5:e3:e3:a5:c0:b8:84:2b:aa:cf:5a:
                    a7:ca:9a:e1:f0:61:3c:f0:55:24:ea:60:88:b6:a9:
                    f8:35:34:3c:6d:16:0d:13:de:a5:73:cc:da:4b:2f:
                    b9:6b:d8:db:b4:8c:c2:76:a1:2c:d6:72:46:5e:d4:
                    23:5a:e3:4c:99:f7:6a:7f:5c:60:02:8c:ec:a5:1a:
                    92:55:8b:b3:e5:72:af:81:5a:b7:ec:05:57:72:f3:
                    be:64:9e:0c:60:1d:f3:b3:c5:18:e4:2f:b8:4b:11:
                    ca:5e:2f:b8:73:4d:20:1d:b2:dc:46:2d:7c:0e:1b:
                    13:e2:e0:b0:3a:cb:9e:90:95:e1:d3:57:8f:ad:5b:
                    2a:97:08:d5:d6:a4:88:68:27:9d:71:38:6c:cb:95:
                    91:13:06:83:cb:54:2a:ac:c8:10:9c:23:3f:d2:cc:
                    f9:4d:5f:79:99:77:68:cb:2d:41:98:6a:2d:f0:65:
                    9a:ad:ac:29:98:23:be:e7:9b:a8:82:78:85:cc:01:
                    a2:3e:5c:fa:25:54:4b:44:b1:b9:dc:66:82:3b:86:
                    fe:19:97:40:33:f0:11:f1:9e:65:50:81:74:84:90:
                    a4:de:5b:ef:3e:33:8f:c1:10:72:53:2a:68:44:c4:
                    3d:01:07:5a:00:99:20:2c:30:98:40:94:e4:1c:b0:
                    00:5d:16:83:15:9a:5c:5c:27:f0:d9:6b:37:c6:9b:
                    3d:86:6c:7b:93:d3:b0:63:0a:7b:d2:b4:43:a7:53:
                    52:11:eb:ef:50:4a:91:0b:33:11:69:15:1f:5a:df:
                    f1:9d:a1:aa:6a:79:cf:6b:9e:20:bc:47:80:0b:8c:
                    02:ec:b8:4d:8c:90:30:6e:bc:01:09:ea:b3:22:c6:
                    58:be:0e:99:b5:c5:6a:e2:a5:b9:56:09:f4:19:2d:
                    66:8d:90:65:52:4a:fe:aa:f8:ba:09:de:d5:08:61:
                    55:b9:6a:a8:a7:21:4f:e4:77:b1:cd:15:d0:d8:4a:
                    fe:97:d7:a9:2a:67:02:33:76:d0:dd:fe:9d:48:51:
                    34:29:53:ba:41:7b:35:01:f7:62:3d:5f:50:b9:16:
                    0e:95:fc:43:b3:30:0c:71:1f:90:7a:a1:46:1e:23:
                    e4:0c:32:91:3d:f6:8f:a5:97:dc:7f:2d:96:15:a2:
                    65:7a:5b
                Exponent: 65537 (0x10001)
        X509v3 extensions:
            X509v3 Subject Key Identifier: 
                B4:75:E6:94:B4:82:37:DF:6B:3F:93:0E:66:CE:63:DE:54:C3:96:34
            X509v3 Authority Key Identifier: 
                6B:01:42:13:BA:B2:03:90:19:10:24:2D:04:6B:41:8E:3F:8D:50:32
            X509v3 Basic Constraints: critical
                CA:TRUE
    Signature Algorithm: sha256WithRSAEncryption
    Signature Value:
        1e:d7:9b:86:3c:7c:a2:4d:28:c2:af:2b:db:74:6d:2e:20:d6:
        93:ec:f9:fc:9b:3e:32:6a:e9:ae:39:b4:55:ff:81:e5:a9:53:
        3b:30:db:1e:71:49:f9:2b:b3:e4:33:18:11:d7:8f:7b:45:f7:
        ad:15:f3:9a:78:98:73:f0:d4:2b:61:ed:44:b8:87:0d:11:23:
        4b:7c:f8:71:ec:93:ca:43:3f:e7:6f:01:b7:56:02:7a:ed:52:
        a4:68:14:e7:bf:46:f9:53:c2:45:c8:40:64:6c:c9:9d:9b:05:
        4f:71:65:64:fb:89:53:8b:02:75:cf:b9:a6:1e:75:f1:d5:b8:
        ad:4e:cb:ff:96:45:7c:72:ae:fb:ff:66:47:1b:2a:5b:88:f7:
        5e:e7:0e:84:eb:34:78:b8:a2:be:3f:41:fd:c0:b3:da:55:17:
        c4:a1:c5:67:8a:c6:60:5c:7a:cf:4f:17:d8:bf:b6:fc:55:94:
        62:b6:b5:ed:95:70:43:21:32:5a:87:d8:2a:17:b5:d6:d6:ab:
        14:ff:8c:50:db:66:c4:07:c7:bb:c5:a5:43:01:0e:f2:99:6f:
        3d:eb:b2:22:cc:46:04:4c:6f:a7:e1:d5:bc:bb:30:fa:6e:9e:
        24:8f:28:25:be:6c:af:2e:00:a8:8f:6c:62:e2:a1:c6:66:c6:
        47:ec:7d:bc:12:6e:eb:ef:fe:b6:f7:cc:44:19:49:43:a4:62:
        21:04:d8:55:50:47:3e:1d:01:5c:ab:3e:77:56:32:15:e1:74:
        d3:9e:f1:ee:e7:c6:1e:48:52:8d:80:35:5b:85:8d:fc:69:4a:
        7b:5a:75:b2:fc:af:6b:5b:4a:48:71:74:c9:c6:ed:4e:b3:5f:
        1d:6e:eb:7b:e4:e7:d7:f5:6e:3d:8d:d3:46:f9:d1:0f:c0:b5:
        9a:f6:c4:60:dc:84:ed:9a:e7:9e:ee:f9:ec:65:28:0c:6f:e1:
        32:94:49:7f:a3:39:6a:af:1d:fe:75:64:49:71:bc:ea:9c:6c:
        03:a1:ec:41:93:19:52:6c:ef:f1:dc:de:21:c3:aa:b7:99:bb:
        a8:fd:4c:7a:e9:76:80:04:91:16:13:b9:06:60:7d:42:44:95:
        4e:a0:a2:ad:06:92:a2:5f:34:50:a5:6b:db:bd:09:cb:9a:99:
        aa:88:88:dd:f0:2c:40:9e:c9:37:e1:d6:fb:22:31:1c:95:89:
        2d:d9:b1:bf:93:53:0f:f2:ed:c9:86:f3:25:0b:c1:9b:41:c4:
        3e:45:66:e4:e0:8e:27:08:d9:ea:35:4f:2c:cb:27:77:5d:5d:
        cf:40:bb:9f:17:f8:11:24:da:0b:fa:9b:ed:6b:5c:b8:16:1a:
        ec:9a:1d:48:a9:c6:8b:0d
-----BEGIN CERTIFICATE-----
MIIF3jCCA8agAwIBAgIUJevanhv8wuhtEAVZTY418VwaczswDQYJKoZIhvcNAQEL
BQAwbzELMAkGA1UEBhMCQlIxCzAJBgNVBAgMAlNDMQ4wDAYDVQQKDAVCcnVubzEP
MA0GA1UECwwGTWF0cml6MRUwEwYDVQQDDAxjYS5icnVuby5jb20xGzAZBgkqhkiG
9w0BCQEWDGNhQGJydW5vLmNvbTAeFw0yNTA5MTQyMzEyMzdaFw0yNjA5MTQyMzEy
MzdaMIGNMQswCQYDVQQGEwJCUjELMAkGA1UECAwCU0MxFjAUBgNVBAcMDUZsb3Jp
YW5vcG9saXMxDjAMBgNVBAoMBUJydW5vMQ8wDQYDVQQLDAZNYXRyaXoxGDAWBgNV
BAMMD2ludGNhLmJydW5vLmNvbTEeMBwGCSqGSIb3DQEJARYPaW50Y2FAYnJ1bm8u
Y29tMIICIjANBgkqhkiG9w0BAQEFAAOCAg8AMIICCgKCAgEA1HyZgpZC/owRLWmC
w7kphckgdJ7FrGa6w/ZlKY4I7HguhUuZNOPAhq1yuos5/Ci6BIXU7gBQ3ftBFLxh
o6/ZVC+iUDNKg1lL9LkywsOx5ePjpcC4hCuqz1qnyprh8GE88FUk6mCItqn4NTQ8
bRYNE96lc8zaSy+5a9jbtIzCdqEs1nJGXtQjWuNMmfdqf1xgAozspRqSVYuz5XKv
gVq37AVXcvO+ZJ4MYB3zs8UY5C+4SxHKXi+4c00gHbLcRi18DhsT4uCwOsuekJXh
01ePrVsqlwjV1qSIaCedcThsy5WREwaDy1QqrMgQnCM/0sz5TV95mXdoyy1BmGot
8GWarawpmCO+55uogniFzAGiPlz6JVRLRLG53GaCO4b+GZdAM/AR8Z5lUIF0hJCk
3lvvPjOPwRByUypoRMQ9AQdaAJkgLDCYQJTkHLAAXRaDFZpcXCfw2Ws3xps9hmx7
k9OwYwp70rRDp1NSEevvUEqRCzMRaRUfWt/xnaGqannPa54gvEeAC4wC7LhNjJAw
brwBCeqzIsZYvg6ZtcVq4qW5Vgn0GS1mjZBlUkr+qvi6Cd7VCGFVuWqopyFP5Hex
zRXQ2Er+l9epKmcCM3bQ3f6dSFE0KVO6QXs1AfdiPV9QuRYOlfxDszAMcR+QeqFG
HiPkDDKRPfaPpZfcfy2WFaJlelsCAwEAAaNTMFEwHQYDVR0OBBYEFLR15pS0gjff
az+TDmbOY95Uw5Y0MB8GA1UdIwQYMBaAFGsBQhO6sgOQGRAkLQRrQY4/jVAyMA8G
A1UdEwEB/wQFMAMBAf8wDQYJKoZIhvcNAQELBQADggIBAB7Xm4Y8fKJNKMKvK9t0
bS4g1pPs+fybPjJq6a45tFX/geWpUzsw2x5xSfkrs+QzGBHXj3tF960V85p4mHPw
1Cth7US4hw0RI0t8+HHsk8pDP+dvAbdWAnrtUqRoFOe/RvlTwkXIQGRsyZ2bBU9x
ZWT7iVOLAnXPuaYedfHVuK1Oy/+WRXxyrvv/ZkcbKluI917nDoTrNHi4or4/Qf3A
s9pVF8ShxWeKxmBces9PF9i/tvxVlGK2te2VcEMhMlqH2CoXtdbWqxT/jFDbZsQH
x7vFpUMBDvKZbz3rsiLMRgRMb6fh1by7MPpuniSPKCW+bK8uAKiPbGLiocZmxkfs
fbwSbuvv/rb3zEQZSUOkYiEE2FVQRz4dAVyrPndWMhXhdNOe8e7nxh5IUo2ANVuF
jfxpSntadbL8r2tbSkhxdMnG7U6zXx1u63vk59f1bj2N00b50Q/AtZr2xGDchO2a
557u+exlKAxv4TKUSX+jOWqvHf51ZElxvOqcbAOh7EGTGVJs7/Hc3iHDqreZu6j9
THrpdoAEkRYTuQZgfUJElU6goq0GkqJfNFCla9u9CcuamaqIiN3wLECeyTfh1vsi
MRyViS3Zsb+TUw/y7cmG8yULwZtBxD5FZuTgjicI2eo1TyzLJ3ddXc9Au58X+BEk
2gv6m+1rXLgWGuyaHUipxosN
-----END CERTIFICATE-----
