Certificate:
    Data:
        Version: 3 (0x2)
        Serial Number:
            25:eb:da:9e:1b:fc:c2:e8:6d:10:05:59:4d:8e:35:f1:5c:1a:73:3b
        Signature Algorithm: sha256WithRSAEncryption
        Issuer: C=BR, ST=SC, O=Bruno, OU=Matriz, CN=ca.bruno.com/emailAddress=ca@bruno.com
        Validity
            Not Before: Sep 14 23:12:37 2025 GMT
            Not After : Sep 14 23:12:37 2026 GMT
        Subject: C=BR, ST=SC, L=Florianopolis, O=Bruno, OU=Matriz, CN=intca.bruno.com/emailAddress=intca@bruno.com
        Subject Public Key Info:
            Public Key Algorithm: rsaEncryption
                Public-Key: (4096 bit)
                Modulus:
                    00:d4:7c:99:82:96:42:fe:8c:11:2d:69:82:c3:b9:
                    29:85:c9:20:74:9e:c5:ac:66:ba:c3:f6:65:29:8e:
                    08:ec:78:2e:85:4b:99:34:e3:c0:86:ad:72:ba:8b:
                    39:fc:28:ba:04:85:d4:ee:00:50:dd:fb:41:14:bc:
                    61:a3:af:d9:54:2f:a2:50:33:4a:83:59:4b:f4:b9:
                    32:c2:c3:b1:e5:e3:e3:a5:c0:b8:84:2b:aa:cf:5a:
                    a7:ca:9a:e1:f0:61:3c:f0:55:24:ea:60:88:b6:a9:
                    f8:35:34:3c:6d:16:0d:13:de:a5:73:cc:da:4b:2f:
                    b9:6b:d8:db:b4:8c:c2:76:a1:2c:d6:72:46:5e:d4:
                    23:5a:e3:4c:99:f7:6a:7f:5c:60:02:8c:ec:a5:1a:
                    92:55:8b:b3:e5:72:af:81:5a:b7:ec:05:57:72:f3:
                    be:64:9e:0c:60:1d:f3:b3:c5:18:e4:2f:b8:4b:11:
                    ca:5e:2f:b8:73:4d:20:1d:b2:dc:46:2d:7c:0e:1b:
                    13:e2:e0:b0:3a:cb:9e:90:95:e1:d3:57:8f:ad:5b:
                    2a:97:08:d5:d6:a4:88:68:27:9d:71:38:6c:cb:95:
                    91:13:06:83:cb:54:2a:ac:c8:10:9c:23:3f:d2:cc:
                    f9:4d:5f:79:99:77:68:cb:2d:41:98:6a:2d:f0:65:
                    9a:ad:ac:29:98:23:be:e7:9b:a8:82:78:85:cc:01:
                    a2:3e:5c:fa:25:54:4b:44:b1:b9:dc:66:82:3b:86:
                    fe:19:97:40:33:f0:11:f1:9e:65:50:81:74:84:90:
                    a4:de:5b:ef:3e:33:8f:c1:10:72:53:2a:68:44:c4:
                    3d:01:07:5a:00:99:20:2c:30:98:40:94:e4:1c:b0:
                    00:5d:16:83:15:9a:5c:5c:27:f0:d9:6b:37:c6:9b:
                    3d:86:6c:7b:93:d3:b0:63:0a:7b:d2:b4:43:a7:53:
                    52:11:eb:ef:50:4a:91:0b:33:11:69:15:1f:5a:df:
                    f1:9d:a1:aa:6a:79:cf:6b:9e:20:bc:47:80:0b:8c:
                    02:ec:b8:4d:8c:90:30:6e:bc:01:09:ea:b3:22:c6:
                    58:be:0e:99:b5:c5:6a:e2:a5:b9:56:09:f4:19:2d:
                    66:8d:90:65:52:4a:fe:aa:f8:ba:09:de:d5:08:61:
                    55:b9:6a:a8:a7:21:4f:e4:77:b1:cd:15:d0:d8:4a:
                    fe:97:d7:a9:2a:67:02:33:76:d0:dd:fe:9d:48:51:
                    34:29:53:ba:41:7b:35:01:f7:62:3d:5f:50:b9:16:
                    0e:95:fc:43:b3:30:0c:71:1f:90:7a:a1:46:1e:23:
                    e4:0c:32:91:3d:f6:8f:a5:97:dc:7f:2d:96:15:a2:
                    65:7a:5b
                Exponent: 65537 (0x10001)
        X509v3 extensions:
            X509v3 Subject Key Identifier: 
                B4:75:E6:94:B4:82:37:DF:6B:3F:93:0E:66:CE:63:DE:54:C3:96:34
            X509v3 Authority Key Identifier: 
                6B:01:42:13:BA:B2:03:90:19:10:24:2D:04:6B:41:8E:3F:8D:50:32
            X509v3 Basic Constraints: critical
                CA:TRUE
    Signature Algorithm: sha256WithRSAEncryption
    Signature Value:
        1e:d7:9b:86:3c:7c:a2:4d:28:c2:af:2b:db:74:6d:2e:20:d6:
        93:ec:f9:fc:9b:3e:32:6a:e9:ae:39:b4:55:ff:81:e5:a9:53:
        3b:30:db:1e:71:49:f9:2b:b3:e4:33:18:11:d7:8f:7b:45:f7:
        ad:15:f3:9a:78:98:73:f0:d4:2b:61:ed:44:b8:87:0d:11:23:
        4b:7c:f8:71:ec:93:ca:43:3f:e7:6f:01:b7:56:02:7a:ed:52:
        a4:68:14:e7:bf:46:f9:53:c2:45:c8:40:64:6c:c9:9d:9b:05:
        4f:71:65:64:fb:89:53:8b:02:75:cf:b9:a6:1e:75:f1:d5:b8:
        ad:4e:cb:ff:96:45:7c:72:ae:fb:ff:66:47:1b:2a:5b:88:f7:
        5e:e7:0e:84:eb:34:78:b8:a2:be:3f:41:fd:c0:b3:da:55:17:
        c4:a1:c5:67:8a:c6:60:5c:7a:cf:4f:17:d8:bf:b6:fc:55:94:
        62:b6:b5:ed:95:70:43:21:32:5a:87:d8:2a:17:b5:d6:d6:ab:
        14:ff:8c:50:db:66:c4:07:c7:bb:c5:a5:43:01:0e:f2:99:6f:
        3d:eb:b2:22:cc:46:04:4c:6f:a7:e1:d5:bc:bb:30:fa:6e:9e:
        24:8f:28:25:be:6c:af:2e:00:a8:8f:6c:62:e2:a1:c6:66:c6:
        47:ec:7d:bc:12:6e:eb:ef:fe:b6:f7:cc:44:19:49:43:a4:62:
        21:04:d8:55:50:47:3e:1d:01:5c:ab:3e:77:56:32:15:e1:74:
        d3:9e:f1:ee:e7:c6:1e:48:52:8d:80:35:5b:85:8d:fc:69:4a:
        7b:5a:75:b2:fc:af:6b:5b:4a:48:71:74:c9:c6:ed:4e:b3:5f:
        1d:6e:eb:7b:e4:e7:d7:f5:6e:3d:8d:d3:46:f9:d1:0f:c0:b5:
        9a:f6:c4:60:dc:84:ed:9a:e7:9e:ee:f9:ec:65:28:0c:6f:e1:
        32:94:49:7f:a3:39:6a:af:1d:fe:75:64:49:71:bc:ea:9c:6c:
        03:a1:ec:41:93:19:52:6c:ef:f1:dc:de:21:c3:aa:b7:99:bb:
        a8:fd:4c:7a:e9:76:80:04:91:16:13:b9:06:60:7d:42:44:95:
        4e:a0:a2:ad:06:92:a2:5f:34:50:a5:6b:db:bd:09:cb:9a:99:
        aa:88:88:dd:f0:2c:40:9e:c9:37:e1:d6:fb:22:31:1c:95:89:
        2d:d9:b1:bf:93:53:0f:f2:ed:c9:86:f3:25:0b:c1:9b:41:c4:
        3e:45:66:e4:e0:8e:27:08:d9:ea:35:4f:2c:cb:27:77:5d:5d:
        cf:40:bb:9f:17:f8:11:24:da:0b:fa:9b:ed:6b:5c:b8:16:1a:
        ec:9a:1d:48:a9:c6:8b:0d
-----BEGIN CERTIFICATE-----
MIIF3jCCA8agAwIBAgIUJevanhv8wuhtEAVZTY418VwaczswDQYJKoZIhvcNAQEL
BQAwbzELMAkGA1UEBhMCQlIxCzAJBgNVBAgMAlNDMQ4wDAYDVQQKDAVCcnVubzEP
MA0GA1UECwwGTWF0cml6MRUwEwYDVQQDDAxjYS5icnVuby5jb20xGzAZBgkqhkiG
9w0BCQEWDGNhQGJydW5vLmNvbTAeFw0yNTA5MTQyMzEyMzdaFw0yNjA5MTQyMzEy
MzdaMIGNMQswCQYDVQQGEwJCUjELMAkGA1UECAwCU0MxFjAUBgNVBAcMDUZsb3Jp
YW5vcG9saXMxDjAMBgNVBAoMBUJydW5vMQ8wDQYDVQQLDAZNYXRyaXoxGDAWBgNV
BAMMD2ludGNhLmJydW5vLmNvbTEeMBwGCSqGSIb3DQEJARYPaW50Y2FAYnJ1bm8u
Y29tMIICIjANBgkqhkiG9w0BAQEFAAOCAg8AMIICCgKCAgEA1HyZgpZC/owRLWmC
w7kphckgdJ7FrGa6w/ZlKY4I7HguhUuZNOPAhq1yuos5/Ci6BIXU7gBQ3ftBFLxh
o6/ZVC+iUDNKg1lL9LkywsOx5ePjpcC4hCuqz1qnyprh8GE88FUk6mCItqn4NTQ8
bRYNE96lc8zaSy+5a9jbtIzCdqEs1nJGXtQjWuNMmfdqf1xgAozspRqSVYuz5XKv
gVq37AVXcvO+ZJ4MYB3zs8UY5C+4SxHKXi+4c00gHbLcRi18DhsT4uCwOsuekJXh
01ePrVsqlwjV1qSIaCedcThsy5WREwaDy1QqrMgQnCM/0sz5TV95mXdoyy1BmGot
8GWarawpmCO+55uogniFzAGiPlz6JVRLRLG53GaCO4b+GZdAM/AR8Z5lUIF0hJCk
3lvvPjOPwRByUypoRMQ9AQdaAJkgLDCYQJTkHLAAXRaDFZpcXCfw2Ws3xps9hmx7
k9OwYwp70rRDp1NSEevvUEqRCzMRaRUfWt/xnaGqannPa54gvEeAC4wC7LhNjJAw
brwBCeqzIsZYvg6ZtcVq4qW5Vgn0GS1mjZBlUkr+qvi6Cd7VCGFVuWqopyFP5Hex
zRXQ2Er+l9epKmcCM3bQ3f6dSFE0KVO6QXs1AfdiPV9QuRYOlfxDszAMcR+QeqFG
HiPkDDKRPfaPpZfcfy2WFaJlelsCAwEAAaNTMFEwHQYDVR0OBBYEFLR15pS0gjff
az+TDmbOY95Uw5Y0MB8GA1UdIwQYMBaAFGsBQhO6sgOQGRAkLQRrQY4/jVAyMA8G
A1UdEwEB/wQFMAMBAf8wDQYJKoZIhvcNAQELBQADggIBAB7Xm4Y8fKJNKMKvK9t0
bS4g1pPs+fybPjJq6a45tFX/geWpUzsw2x5xSfkrs+QzGBHXj3tF960V85p4mHPw
1Cth7US4hw0RI0t8+HHsk8pDP+dvAbdWAnrtUqRoFOe/RvlTwkXIQGRsyZ2bBU9x
ZWT7iVOLAnXPuaYedfHVuK1Oy/+WRXxyrvv/ZkcbKluI917nDoTrNHi4or4/Qf3A
s9pVF8ShxWeKxmBces9PF9i/tvxVlGK2te2VcEMhMlqH2CoXtdbWqxT/jFDbZsQH
x7vFpUMBDvKZbz3rsiLMRgRMb6fh1by7MPpuniSPKCW+bK8uAKiPbGLiocZmxkfs
fbwSbuvv/rb3zEQZSUOkYiEE2FVQRz4dAVyrPndWMhXhdNOe8e7nxh5IUo2ANVuF
jfxpSntadbL8r2tbSkhxdMnG7U6zXx1u63vk59f1bj2N00b50Q/AtZr2xGDchO2a
557u+exlKAxv4TKUSX+jOWqvHf51ZElxvOqcbAOh7EGTGVJs7/Hc3iHDqreZu6j9
THrpdoAEkRYTuQZgfUJElU6goq0GkqJfNFCla9u9CcuamaqIiN3wLECeyTfh1vsi
MRyViS3Zsb+TUw/y7cmG8yULwZtBxD5FZuTgjicI2eo1TyzLJ3ddXc9Au58X+BEk
2gv6m+1rXLgWGuyaHUipxosN
-----END CERTIFICATE-----
