Certificate:
    Data:
        Version: 3 (0x2)
        Serial Number:
            25:eb:da:9e:1b:fc:c2:e8:6d:10:05:59:4d:8e:35:f1:5c:1a:73:3c
        Signature Algorithm: sha256WithRSAEncryption
        Issuer: C=BR, ST=SC, L=Florianopolis, O=Bruno, OU=Matriz, CN=intca.bruno.com/emailAddress=intca@bruno.com
        Validity
            Not Before: Sep 14 23:12:37 2025 GMT
            Not After : Sep 14 23:12:37 2026 GMT
        Subject: C=BR, ST=SC, L=Florianopolis, O=Bruno, OU=Matriz, CN=server.bruno.com/emailAddress=server@bruno.com
        Subject Public Key Info:
            Public Key Algorithm: rsaEncryption
                Public-Key: (2048 bit)
                Modulus:
                    00:bd:67:23:b7:fb:7c:6c:43:19:6d:5d:ed:60:82:
                    ee:00:97:41:57:42:e3:83:cc:08:61:30:b0:a5:a6:
                    17:2a:f9:8c:76:0b:c4:9c:c3:33:54:8d:b4:23:34:
                    e9:60:a6:ab:f3:36:09:50:23:24:d3:ad:0c:ec:0d:
                    04:e4:e7:41:8b:72:82:17:4b:fd:85:68:0b:fc:eb:
                    49:7a:61:42:ff:49:b9:c5:38:aa:98:b4:1a:1b:a4:
                    cd:00:2a:0d:81:89:01:fb:cd:81:bc:2c:68:6a:b8:
                    50:3b:bc:c9:66:ff:0d:94:a8:58:a6:41:b8:fa:2d:
                    9d:1e:53:03:d9:ee:2a:a9:2c:31:4b:66:34:2e:a8:
                    18:3c:d7:bd:d2:85:b2:29:51:36:8b:2c:bf:6c:d3:
                    cf:6c:06:10:03:52:b2:da:53:1a:e5:7b:f2:4c:6a:
                    30:16:ef:74:a5:88:98:11:86:c4:a6:12:19:54:6f:
                    4f:8f:7a:da:62:5d:49:7a:7e:78:f8:ee:3b:d3:d2:
                    3f:b8:2a:70:4f:cc:4d:d9:be:63:98:a8:b3:35:2d:
                    e1:6f:15:ab:b8:39:86:ff:71:22:bf:6a:da:fd:44:
                    d7:c3:3f:20:03:05:5b:c3:bd:65:0b:4a:a7:a5:90:
                    b2:0e:24:5a:f4:16:e7:65:b6:79:05:bd:94:7b:2f:
                    d6:51
                Exponent: 65537 (0x10001)
        X509v3 extensions:
            X509v3 Subject Key Identifier: 
                13:9C:43:CD:F3:9D:8B:01:A6:9A:52:85:1C:05:C0:FE:73:7A:06:43
            X509v3 Authority Key Identifier: 
                B4:75:E6:94:B4:82:37:DF:6B:3F:93:0E:66:CE:63:DE:54:C3:96:34
            X509v3 Basic Constraints: critical
                CA:TRUE
    Signature Algorithm: sha256WithRSAEncryption
    Signature Value:
        44:a1:28:f1:84:63:89:06:43:af:94:4b:06:7f:87:ed:37:ea:
        ac:1c:e2:ba:00:e9:02:2e:cb:54:b2:82:04:a2:1e:9e:78:a4:
        f0:91:15:c4:fc:62:ae:e6:e5:fd:cf:b1:fc:2c:b7:bf:4f:e3:
        30:1a:be:1a:3c:ba:79:6e:f8:79:a8:c2:8e:44:1a:db:a9:f5:
        9c:bc:d4:a5:c9:0d:9e:e4:ee:34:c4:34:31:48:b5:fc:74:79:
        19:50:65:5f:f6:a4:39:3f:c9:70:0f:d1:c2:bd:86:c7:e3:a9:
        dc:67:5b:c2:bb:8f:bb:28:d8:17:0b:26:73:bd:9a:be:5f:e8:
        31:f6:3b:11:a1:cc:b5:56:50:e6:ff:86:7a:b8:53:ee:47:93:
        ad:55:a4:ce:ba:6b:f7:f4:f9:a1:bb:92:47:40:b8:b3:ef:da:
        0a:9c:a0:c9:a8:f0:31:65:91:aa:fb:c2:5f:e6:cc:ca:a4:cc:
        bc:7c:7d:dc:a2:e0:2b:93:10:41:c2:0b:7b:f0:b5:12:f9:3e:
        7c:1c:4f:2f:5d:e9:58:26:0f:b7:6c:8c:6e:72:7e:d4:1d:d1:
        07:eb:eb:45:bd:6b:fa:48:ee:d0:09:f4:4d:0b:69:4c:13:4f:
        1a:1e:10:4a:b5:1b:b1:c7:39:97:84:d7:1a:4b:4c:82:ed:91:
        15:71:d3:46:af:eb:e2:a9:18:20:04:0b:24:d8:78:49:80:4c:
        01:b5:26:19:ea:68:82:5f:58:ee:23:4e:09:72:ac:3d:03:ca:
        61:1c:cb:72:42:a3:cb:85:dc:9b:4a:5e:7d:27:1c:33:59:43:
        09:96:e6:3e:e6:b4:3a:8c:95:c4:91:3a:c5:f7:17:e1:8f:b0:
        fd:7d:5a:35:1d:4f:7c:e5:58:e8:83:56:6c:40:0d:66:42:6d:
        0a:d9:ac:0c:f0:b2:ba:63:d6:66:32:45:cd:53:62:b1:24:90:
        1e:1d:6d:12:4b:f7:a1:77:ae:91:f0:63:70:ae:a8:ff:d1:7e:
        fd:12:00:7c:d7:be:99:67:6c:80:b5:03:4f:19:1e:98:42:f1:
        77:75:1a:b7:e2:1c:a0:02:b3:f2:04:b1:4c:76:30:ba:14:95:
        e4:1c:d7:81:1f:f6:0a:3b:ac:5f:82:36:d3:09:24:3d:3f:c5:
        57:40:4c:13:3c:9c:31:b3:72:53:f8:33:82:e4:29:5c:db:64:
        ac:37:d2:9c:44:e2:5e:70:63:de:3d:6c:fc:ae:09:1c:73:a3:
        70:db:08:eb:2a:01:49:e4:23:73:8a:93:bc:05:2a:e3:f2:d0:
        e2:13:e9:f8:3c:83:34:e0:8f:86:c2:4a:f4:e0:4f:5f:6c:d4:
        b8:3b:19:53:b2:4d:97:db
-----BEGIN CERTIFICATE-----
MIIE/zCCAuegAwIBAgIUJevanhv8wuhtEAVZTY418VwaczwwDQYJKoZIhvcNAQEL
BQAwgY0xCzAJBgNVBAYTAkJSMQswCQYDVQQIDAJTQzEWMBQGA1UEBwwNRmxvcmlh
bm9wb2xpczEOMAwGA1UECgwFQnJ1bm8xDzANBgNVBAsMBk1hdHJpejEYMBYGA1UE
AwwPaW50Y2EuYnJ1bm8uY29tMR4wHAYJKoZIhvcNAQkBFg9pbnRjYUBicnVuby5j
b20wHhcNMjUwOTE0MjMxMjM3WhcNMjYwOTE0MjMxMjM3WjCBjzELMAkGA1UEBhMC
QlIxCzAJBgNVBAgMAlNDMRYwFAYDVQQHDA1GbG9yaWFub3BvbGlzMQ4wDAYDVQQK
DAVCcnVubzEPMA0GA1UECwwGTWF0cml6MRkwFwYDVQQDDBBzZXJ2ZXIuYnJ1bm8u
Y29tMR8wHQYJKoZIhvcNAQkBFhBzZXJ2ZXJAYnJ1bm8uY29tMIIBIjANBgkqhkiG
9w0BAQEFAAOCAQ8AMIIBCgKCAQEAvWcjt/t8bEMZbV3tYILuAJdBV0Ljg8wIYTCw
paYXKvmMdgvEnMMzVI20IzTpYKar8zYJUCMk060M7A0E5OdBi3KCF0v9hWgL/OtJ
emFC/0m5xTiqmLQaG6TNACoNgYkB+82BvCxoarhQO7zJZv8NlKhYpkG4+i2dHlMD
2e4qqSwxS2Y0LqgYPNe90oWyKVE2iyy/bNPPbAYQA1Ky2lMa5XvyTGowFu90pYiY
EYbEphIZVG9Pj3raYl1Jen54+O4709I/uCpwT8xN2b5jmKizNS3hbxWruDmG/3Ei
v2ra/UTXwz8gAwVbw71lC0qnpZCyDiRa9BbnZbZ5Bb2Uey/WUQIDAQABo1MwUTAd
BgNVHQ4EFgQUE5xDzfOdiwGmmlKFHAXA/nN6BkMwHwYDVR0jBBgwFoAUtHXmlLSC
N99rP5MOZs5j3lTDljQwDwYDVR0TAQH/BAUwAwEB/zANBgkqhkiG9w0BAQsFAAOC
AgEARKEo8YRjiQZDr5RLBn+H7TfqrBziugDpAi7LVLKCBKIennik8JEVxPxirubl
/c+x/Cy3v0/jMBq+Gjy6eW74eajCjkQa26n1nLzUpckNnuTuNMQ0MUi1/HR5GVBl
X/akOT/JcA/Rwr2Gx+Op3GdbwruPuyjYFwsmc72avl/oMfY7EaHMtVZQ5v+GerhT
7keTrVWkzrpr9/T5obuSR0C4s+/aCpygyajwMWWRqvvCX+bMyqTMvHx93KLgK5MQ
QcILe/C1Evk+fBxPL13pWCYPt2yMbnJ+1B3RB+vrRb1r+kju0An0TQtpTBNPGh4Q
SrUbscc5l4TXGktMgu2RFXHTRq/r4qkYIAQLJNh4SYBMAbUmGepogl9Y7iNOCXKs
PQPKYRzLckKjy4Xcm0pefSccM1lDCZbmPua0OoyVxJE6xfcX4Y+w/X1aNR1PfOVY
6INWbEANZkJtCtmsDPCyumPWZjJFzVNisSSQHh1tEkv3oXeukfBjcK6o/9F+/RIA
fNe+mWdsgLUDTxkemELxd3Uat+IcoAKz8gSxTHYwuhSV5BzXgR/2CjusX4I20wkk
PT/FV0BMEzycMbNyU/gzguQpXNtkrDfSnETiXnBj3j1s/K4JHHOjcNsI6yoBSeQj
c4qTvAUq4/LQ4hPp+DyDNOCPhsJK9OBPX2zUuDsZU7JNl9s=
-----END CERTIFICATE-----
