Certificate:
    Data:
        Version: 3 (0x2)
        Serial Number:
            25:eb:da:9e:1b:fc:c2:e8:6d:10:05:59:4d:8e:35:f1:5c:1a:73:3a
        Signature Algorithm: sha256WithRSAEncryption
        Issuer: C=BR, ST=SC, O=Bruno, OU=Matriz, CN=ca.bruno.com/emailAddress=ca@bruno.com
        Validity
            Not Before: Sep 14 23:12:35 2025 GMT
            Not After : Sep 13 23:12:35 2028 GMT
        Subject: C=BR, ST=SC, O=Bruno, OU=Matriz, CN=ca.bruno.com/emailAddress=ca@bruno.com
        Subject Public Key Info:
            Public Key Algorithm: rsaEncryption
                Public-Key: (4096 bit)
                Modulus:
                    00:99:3a:eb:37:17:c5:5a:1d:89:a0:34:60:82:25:
                    e1:2a:f0:6f:56:99:e3:d4:e7:01:48:ea:5e:7d:3f:
                    d2:a3:2a:3c:ee:0f:52:46:b1:a9:48:3a:7d:e3:a4:
                    24:db:5a:b4:17:03:02:0e:ce:8b:31:f6:6a:60:36:
                    0c:59:55:b1:98:4b:45:04:dd:db:0f:e6:53:e7:4d:
                    fe:c7:eb:00:83:d0:12:32:df:b0:f8:45:14:0f:6a:
                    86:cc:2f:b7:03:c5:ec:e8:3c:78:26:07:ab:23:0a:
                    06:36:60:7c:f5:36:a4:16:c5:fe:5a:8f:ca:d7:7c:
                    f9:93:74:89:21:c6:df:63:bb:0a:5e:06:3c:42:e6:
                    f4:49:11:dd:7b:d7:c2:e4:0f:2f:f7:96:0f:1c:f1:
                    13:7a:15:eb:5c:c2:59:94:38:b4:3f:07:21:9e:a2:
                    be:9c:fc:f7:2a:f8:42:62:74:4c:bd:d2:a9:3f:3b:
                    57:af:db:fa:b2:3c:d2:dd:8b:51:5f:14:80:cf:14:
                    9d:45:88:b9:c7:10:68:56:3b:93:8d:f5:11:92:95:
                    a8:63:76:cc:a1:58:05:f9:16:9b:11:2c:43:1f:bb:
                    54:fd:ce:c1:b7:bb:1d:fe:8f:c2:04:77:1a:6b:4c:
                    e2:4f:3e:38:5c:71:37:c9:3d:3a:3f:48:d0:10:8c:
                    3a:65:6c:7f:86:e7:e5:56:36:0d:84:75:36:63:30:
                    b7:c1:7a:5c:e4:c8:fe:47:4f:44:68:33:58:f3:e2:
                    5e:ca:91:4e:73:12:43:a7:62:5e:68:05:3c:53:e4:
                    51:3c:e3:bf:c2:8b:4e:bb:d0:a7:76:ad:f6:f9:84:
                    4b:21:34:a1:b6:a6:74:99:39:51:61:6c:f0:78:f1:
                    65:88:bc:bd:f7:58:4f:eb:40:af:63:02:e2:df:e7:
                    3b:d7:b2:da:46:96:93:1b:94:31:44:e5:e6:b0:dd:
                    21:b4:04:20:57:bc:c1:e1:17:81:f9:6a:1a:f8:3d:
                    1f:08:b0:0a:7e:21:6e:f5:b6:21:76:9c:68:3f:55:
                    64:b5:07:03:7b:a9:2d:b6:cc:da:65:a7:7e:a5:a8:
                    7d:9a:10:0d:5e:db:e6:b4:73:66:be:b1:ea:b8:60:
                    0c:47:1e:e7:0a:41:d2:0a:43:81:d8:de:72:f3:0d:
                    ac:a4:c9:fe:91:ed:50:44:d7:ff:1f:68:cf:fe:cf:
                    6c:0b:28:b9:0a:ce:a1:f2:1c:27:c3:28:64:00:72:
                    e4:5e:03:ca:f5:ff:df:47:a2:b7:d3:23:bf:ba:c1:
                    44:08:d7:ca:a1:67:5b:74:8a:28:6c:4e:00:6c:09:
                    5d:d7:67:ff:36:44:8a:95:72:89:f5:89:84:90:26:
                    66:d5:5f
                Exponent: 65537 (0x10001)
        X509v3 extensions:
            X509v3 Subject Key Identifier: 
                6B:01:42:13:BA:B2:03:90:19:10:24:2D:04:6B:41:8E:3F:8D:50:32
            X509v3 Authority Key Identifier: 
                6B:01:42:13:BA:B2:03:90:19:10:24:2D:04:6B:41:8E:3F:8D:50:32
            X509v3 Basic Constraints: critical
                CA:TRUE
    Signature Algorithm: sha256WithRSAEncryption
    Signature Value:
        32:73:84:2c:42:15:e9:23:3a:78:02:54:df:ba:c5:b1:40:1f:
        1d:6e:f5:f7:34:dd:b4:ae:5f:d5:9e:de:f9:37:b8:d2:7f:6c:
        70:6e:51:b0:d0:57:a6:5a:3e:64:0e:1b:fe:8e:ae:0e:34:59:
        97:a5:96:59:51:87:51:37:f0:b3:50:6b:bb:7e:63:ae:ad:6f:
        6b:71:6c:9a:8f:cc:4d:39:10:f9:1d:ef:b2:82:56:5a:ae:2f:
        ed:ec:72:b8:c3:27:de:f9:bb:46:a2:03:fc:03:84:b8:ab:fa:
        d5:f3:d8:6b:76:7b:fa:a5:db:77:38:4b:98:cc:17:37:ba:85:
        f3:39:27:1b:0f:e0:1a:5d:80:67:c3:e7:dd:d8:60:da:da:e2:
        c2:c4:cc:76:29:7e:d8:f0:9c:68:c5:be:6d:6d:11:80:8d:64:
        5f:14:87:98:b3:1d:23:e8:21:03:79:c9:0b:f7:80:de:41:9c:
        ea:23:53:da:5b:f4:14:70:e1:c7:f9:5b:f3:f1:f3:4e:3f:e7:
        40:71:35:a4:86:54:e6:10:dd:01:86:92:87:85:25:9d:0a:e7:
        fd:a7:8e:97:9e:21:d5:ef:54:2d:fd:f0:6a:65:0d:46:88:92:
        8f:81:65:ab:a7:f6:7a:12:dc:81:3f:db:19:16:1b:17:de:7b:
        f9:0c:42:aa:b9:24:fe:67:4f:d0:d2:7d:59:b5:c2:e8:cc:b8:
        13:3b:a3:fb:ee:7e:b1:e1:7c:c6:0f:2c:bc:aa:58:9e:17:93:
        db:67:72:0c:65:14:91:e2:94:99:02:b3:a3:df:23:e9:29:b0:
        31:b6:b9:eb:df:6e:8a:17:b8:c6:3c:a8:2b:38:92:f7:f3:c3:
        e1:92:12:56:5d:35:d1:47:be:dc:26:cd:05:c7:5c:8a:1f:a2:
        63:f7:67:24:d5:bb:3a:8c:b3:3e:59:78:f3:ac:4d:3c:e5:7b:
        c7:77:50:24:7e:22:11:f5:1e:3a:19:0b:64:00:8a:dc:26:e4:
        a2:8f:24:8a:72:5e:02:36:70:fa:cf:b2:79:9b:a5:97:0f:6e:
        9c:55:27:f5:b3:d6:32:58:53:55:ee:aa:3e:86:ef:71:8c:64:
        ac:a9:a8:a5:e8:07:fb:26:43:6b:5d:78:83:41:3a:22:5a:ba:
        48:09:20:05:0e:e8:77:87:3c:7e:dc:85:82:39:bd:76:5c:6e:
        88:45:a4:15:f6:ef:21:21:20:cb:ed:d5:ed:3b:11:d6:b4:44:
        a3:04:0e:82:1a:bb:b2:82:87:65:1e:b7:fb:e6:b3:f4:76:4f:
        e1:27:88:14:5e:ec:8e:c7:9c:cc:5e:8b:f8:70:86:21:da:d6:
        ed:9b:f1:75:36:d8:c5:36
-----BEGIN CERTIFICATE-----
MIIFvzCCA6egAwIBAgIUJevanhv8wuhtEAVZTY418VwaczowDQYJKoZIhvcNAQEL
BQAwbzELMAkGA1UEBhMCQlIxCzAJBgNVBAgMAlNDMQ4wDAYDVQQKDAVCcnVubzEP
MA0GA1UECwwGTWF0cml6MRUwEwYDVQQDDAxjYS5icnVuby5jb20xGzAZBgkqhkiG
9w0BCQEWDGNhQGJydW5vLmNvbTAeFw0yNTA5MTQyMzEyMzVaFw0yODA5MTMyMzEy
MzVaMG8xCzAJBgNVBAYTAkJSMQswCQYDVQQIDAJTQzEOMAwGA1UECgwFQnJ1bm8x
DzANBgNVBAsMBk1hdHJpejEVMBMGA1UEAwwMY2EuYnJ1bm8uY29tMRswGQYJKoZI
hvcNAQkBFgxjYUBicnVuby5jb20wggIiMA0GCSqGSIb3DQEBAQUAA4ICDwAwggIK
AoICAQCZOus3F8VaHYmgNGCCJeEq8G9WmePU5wFI6l59P9KjKjzuD1JGsalIOn3j
pCTbWrQXAwIOzosx9mpgNgxZVbGYS0UE3dsP5lPnTf7H6wCD0BIy37D4RRQPaobM
L7cDxezoPHgmB6sjCgY2YHz1NqQWxf5aj8rXfPmTdIkhxt9juwpeBjxC5vRJEd17
18LkDy/3lg8c8RN6FetcwlmUOLQ/ByGeor6c/Pcq+EJidEy90qk/O1ev2/qyPNLd
i1FfFIDPFJ1FiLnHEGhWO5ON9RGSlahjdsyhWAX5FpsRLEMfu1T9zsG3ux3+j8IE
dxprTOJPPjhccTfJPTo/SNAQjDplbH+G5+VWNg2EdTZjMLfBelzkyP5HT0RoM1jz
4l7KkU5zEkOnYl5oBTxT5FE847/Ci0670Kd2rfb5hEshNKG2pnSZOVFhbPB48WWI
vL33WE/rQK9jAuLf5zvXstpGlpMblDFE5eaw3SG0BCBXvMHhF4H5ahr4PR8IsAp+
IW71tiF2nGg/VWS1BwN7qS22zNplp36lqH2aEA1e2+a0c2a+seq4YAxHHucKQdIK
Q4HY3nLzDaykyf6R7VBE1/8faM/+z2wLKLkKzqHyHCfDKGQAcuReA8r1/99HorfT
I7+6wUQI18qhZ1t0iihsTgBsCV3XZ/82RIqVcon1iYSQJmbVXwIDAQABo1MwUTAd
BgNVHQ4EFgQUawFCE7qyA5AZECQtBGtBjj+NUDIwHwYDVR0jBBgwFoAUawFCE7qy
A5AZECQtBGtBjj+NUDIwDwYDVR0TAQH/BAUwAwEB/zANBgkqhkiG9w0BAQsFAAOC
AgEAMnOELEIV6SM6eAJU37rFsUAfHW719zTdtK5f1Z7e+Te40n9scG5RsNBXplo+
ZA4b/o6uDjRZl6WWWVGHUTfws1Bru35jrq1va3Fsmo/MTTkQ+R3vsoJWWq4v7exy
uMMn3vm7RqID/AOEuKv61fPYa3Z7+qXbdzhLmMwXN7qF8zknGw/gGl2AZ8Pn3dhg
2triwsTMdil+2PCcaMW+bW0RgI1kXxSHmLMdI+ghA3nJC/eA3kGc6iNT2lv0FHDh
x/lb8/HzTj/nQHE1pIZU5hDdAYaSh4UlnQrn/aeOl54h1e9ULf3wamUNRoiSj4Fl
q6f2ehLcgT/bGRYbF957+QxCqrkk/mdP0NJ9WbXC6My4Ezuj++5+seF8xg8svKpY
nheT22dyDGUUkeKUmQKzo98j6SmwMba5699uihe4xjyoKziS9/PD4ZISVl010Ue+
3CbNBcdcih+iY/dnJNW7OoyzPll486xNPOV7x3dQJH4iEfUeOhkLZACK3Cbkoo8k
inJeAjZw+s+yeZullw9unFUn9bPWMlhTVe6qPobvcYxkrKmopegH+yZDa114g0E6
Ilq6SAkgBQ7od4c8ftyFgjm9dlxuiEWkFfbvISEgy+3V7TsR1rREowQOghq7soKH
ZR63++az9HZP4SeIFF7sjseczF6L+HCGIdrW7ZvxdTbYxTY=
-----END CERTIFICATE-----
