Certificate:
    Data:
        Version: 3 (0x2)
        Serial Number:
            25:eb:da:9e:1b:fc:c2:e8:6d:10:05:59:4d:8e:35:f1:5c:1a:73:3d
        Signature Algorithm: sha256WithRSAEncryption
        Issuer: C=BR, ST=SC, L=Florianopolis, O=Bruno, OU=Matriz, CN=server.bruno.com/emailAddress=server@bruno.com
        Validity
            Not Before: Sep 14 23:12:37 2025 GMT
            Not After : Sep 14 23:12:37 2026 GMT
        Subject: C=BR, ST=SC, L=Florianopolis, O=Bruno, OU=Matriz, CN=client.bruno.com/emailAddress=client@bruno.com
        Subject Public Key Info:
            Public Key Algorithm: rsaEncryption
                Public-Key: (2048 bit)
                Modulus:
                    00:bc:20:0e:d1:fa:7f:d6:5f:5f:a4:6d:8c:5b:94:
                    e1:55:db:00:0e:7b:64:3f:5f:e6:e2:1c:d6:e4:2a:
                    d6:0f:72:6c:85:29:01:eb:de:4c:7b:7a:f9:fa:53:
                    24:02:f7:e0:58:a1:0a:d8:fe:fd:9f:1a:c3:76:40:
                    a8:cd:32:e5:52:c7:6f:c2:fe:fe:77:47:2a:e9:af:
                    1d:66:f7:10:ce:22:6b:c5:40:2c:85:08:87:e4:97:
                    1d:3b:b6:e3:78:b6:3b:54:46:9f:5e:6b:e6:b9:37:
                    3b:b2:86:c5:47:4a:c8:87:fc:5d:1d:4e:ef:62:62:
                    aa:fd:bf:d5:03:6c:4c:63:1b:8f:e1:d8:da:a9:4c:
                    c0:7c:bc:86:78:8e:b6:5b:56:d8:11:35:30:4f:d5:
                    c8:1c:00:f7:e4:c4:af:31:56:e5:74:87:2f:9a:0c:
                    c4:13:87:e7:73:ac:36:38:21:81:21:d0:5b:5a:46:
                    67:46:31:48:7f:92:e0:8f:93:38:79:83:f0:04:b2:
                    74:2a:8f:de:98:92:24:be:e7:31:28:19:af:b3:84:
                    62:99:a8:7e:48:d2:4f:f9:3b:3b:72:58:d5:26:73:
                    c6:b6:d6:74:44:03:81:44:c9:e5:f5:3d:8f:7e:7e:
                    08:8b:fb:47:60:a4:77:3b:de:ae:29:80:4d:d8:99:
                    61:67
                Exponent: 65537 (0x10001)
        X509v3 extensions:
            X509v3 Basic Constraints: 
                CA:FALSE
            X509v3 Subject Key Identifier: 
                D8:1F:76:0F:EF:7F:6E:4C:6C:27:D6:70:06:9C:CC:82:04:C7:63:FD
            X509v3 Authority Key Identifier: 
                13:9C:43:CD:F3:9D:8B:01:A6:9A:52:85:1C:05:C0:FE:73:7A:06:43
    Signature Algorithm: sha256WithRSAEncryption
    Signature Value:
        9a:fe:fa:7b:23:ce:d9:c6:d8:90:7e:ed:b9:b4:36:53:90:31:
        d2:12:41:b0:35:58:f3:40:cf:25:b0:8b:18:f0:de:f2:6b:39:
        35:6f:74:cd:b5:a2:e9:35:40:22:97:53:08:20:3a:68:c7:27:
        84:2e:df:46:77:b7:09:f3:dd:2d:3f:8d:e6:83:3d:a9:03:18:
        4c:45:9d:82:9a:97:1f:ca:b9:09:89:1a:d4:81:24:fb:ef:db:
        bf:51:a7:32:ca:79:e2:18:b4:30:61:fd:17:08:b8:b3:9b:7c:
        0f:22:65:17:8b:20:be:63:78:7b:c8:fb:9b:71:b0:45:22:7e:
        f8:29:03:60:1f:52:6a:e7:62:65:f2:18:00:b0:92:9d:43:cb:
        f7:a0:4f:34:21:de:46:8a:d2:42:73:b7:af:68:35:f4:59:fb:
        5e:79:8d:e9:0c:5c:98:e1:41:74:26:04:5c:20:53:ce:ec:77:
        54:e5:1e:41:45:45:00:48:f0:e0:1d:dd:74:39:ba:13:32:83:
        34:0e:20:99:67:b6:46:ca:a6:1e:e3:ef:93:ae:a3:36:0c:34:
        bf:e6:b3:ef:e9:47:9c:e6:c0:88:dc:ab:e9:3b:e8:9c:10:41:
        2d:45:e7:09:f7:22:4e:0d:75:81:e5:93:18:d2:9f:1e:2a:ce:
        3b:de:91:f5
-----BEGIN CERTIFICATE-----
MIID+zCCAuOgAwIBAgIUJevanhv8wuhtEAVZTY418Vwacz0wDQYJKoZIhvcNAQEL
BQAwgY8xCzAJBgNVBAYTAkJSMQswCQYDVQQIDAJTQzEWMBQGA1UEBwwNRmxvcmlh
bm9wb2xpczEOMAwGA1UECgwFQnJ1bm8xDzANBgNVBAsMBk1hdHJpejEZMBcGA1UE
AwwQc2VydmVyLmJydW5vLmNvbTEfMB0GCSqGSIb3DQEJARYQc2VydmVyQGJydW5v
LmNvbTAeFw0yNTA5MTQyMzEyMzdaFw0yNjA5MTQyMzEyMzdaMIGPMQswCQYDVQQG
EwJCUjELMAkGA1UECAwCU0MxFjAUBgNVBAcMDUZsb3JpYW5vcG9saXMxDjAMBgNV
BAoMBUJydW5vMQ8wDQYDVQQLDAZNYXRyaXoxGTAXBgNVBAMMEGNsaWVudC5icnVu
by5jb20xHzAdBgkqhkiG9w0BCQEWEGNsaWVudEBicnVuby5jb20wggEiMA0GCSqG
SIb3DQEBAQUAA4IBDwAwggEKAoIBAQC8IA7R+n/WX1+kbYxblOFV2wAOe2Q/X+bi
HNbkKtYPcmyFKQHr3kx7evn6UyQC9+BYoQrY/v2fGsN2QKjNMuVSx2/C/v53Ryrp
rx1m9xDOImvFQCyFCIfklx07tuN4tjtURp9ea+a5NzuyhsVHSsiH/F0dTu9iYqr9
v9UDbExjG4/h2NqpTMB8vIZ4jrZbVtgRNTBP1cgcAPfkxK8xVuV0hy+aDMQTh+dz
rDY4IYEh0FtaRmdGMUh/kuCPkzh5g/AEsnQqj96YkiS+5zEoGa+zhGKZqH5I0k/5
OztyWNUmc8a21nREA4FEyeX1PY9+fgiL+0dgpHc73q4pgE3YmWFnAgMBAAGjTTBL
MAkGA1UdEwQCMAAwHQYDVR0OBBYEFNgfdg/vf25MbCfWcAaczIIEx2P9MB8GA1Ud
IwQYMBaAFBOcQ83znYsBpppShRwFwP5zegZDMA0GCSqGSIb3DQEBCwUAA4IBAQCa
/vp7I87ZxtiQfu25tDZTkDHSEkGwNVjzQM8lsIsY8N7yazk1b3TNtaLpNUAil1MI
IDpoxyeELt9Gd7cJ890tP43mgz2pAxhMRZ2CmpcfyrkJiRrUgST779u/Uacyynni
GLQwYf0XCLizm3wPImUXiyC+Y3h7yPubcbBFIn74KQNgH1Jq52Jl8hgAsJKdQ8v3
oE80Id5GitJCc7evaDX0WfteeY3pDFyY4UF0JgRcIFPO7HdU5R5BRUUASPDgHd10
OboTMoM0DiCZZ7ZGyqYe4++TrqM2DDS/5rPv6Uec5sCI3KvpO+icEEEtRecJ9yJO
DXWB5ZMY0p8eKs473pH1
-----END CERTIFICATE-----
